TMS320C2000 Assembler PC v15.12.1 Sat Jun 25 21:32:07 2016

Tools Copyright (c) 1996-2015 Texas Instruments Incorporated
C:\Users\RJKJ_ZGH\AppData\Local\Temp\0832410                         PAGE    1

       1              ;***************************************************************
       2              ;* TMS320C2000 C/C++ Codegen                   PC v15.12.1.LTS *
       3              ;* Date/Time created: Sat Jun 25 21:32:07 2016                 *
       4              ;***************************************************************
       5                      .compiler_opts --abi=coffabi --float_support=fpu32 --hll_source=on --mem_model:code=flat --mem_model:
       6        0002  FP      .set    XAR2
       7              
       8              $C$DW$CU        .dwtag  DW_TAG_compile_unit
       9                      .dwattr $C$DW$CU, DW_AT_name("D:/work/DSP/Steering_Engine/F2833x/v141/DSP2833x_common/source/DSP2833x
      10                      .dwattr $C$DW$CU, DW_AT_producer("TI TMS320C2000 C/C++ Codegen PC v15.12.1.LTS Copyright (c) 1996-201
      11                      .dwattr $C$DW$CU, DW_AT_TI_version(0x01)
      12                      .dwattr $C$DW$CU, DW_AT_comp_dir("D:\work\DSP\Steering_Engine\F2833x\v141\DSP2833x_examples_ccsv5\fpu
      13              ;       C:\ti\ccsv6\tools\compiler\ti-cgt-c2000_15.12.1.LTS\bin\ac2000.exe -@C:\\Users\\RJKJ_ZGH\\AppData\\Lo
      14 00000000               .sect   ".text:retain"
      15                      .retain
      16                      .retainrefs
      17                      .global _INT13_ISR
      18              
      19              $C$DW$1 .dwtag  DW_TAG_subprogram
      20                      .dwattr $C$DW$1, DW_AT_name("INT13_ISR")
      21                      .dwattr $C$DW$1, DW_AT_low_pc(_INT13_ISR)
      22                      .dwattr $C$DW$1, DW_AT_high_pc(0x00)
      23                      .dwattr $C$DW$1, DW_AT_TI_symbol_name("_INT13_ISR")
      24                      .dwattr $C$DW$1, DW_AT_external
      25                      .dwattr $C$DW$1, DW_AT_TI_begin_file("D:/work/DSP/Steering_Engine/F2833x/v141/DSP2833x_common/source/
      26                      .dwattr $C$DW$1, DW_AT_TI_begin_line(0x1f)
      27                      .dwattr $C$DW$1, DW_AT_TI_begin_column(0x10)
      28                      .dwattr $C$DW$1, DW_AT_TI_interrupt
      29                      .dwattr $C$DW$1, DW_AT_TI_max_frame_size(-6)
      30                      .dwpsn  file "D:/work/DSP/Steering_Engine/F2833x/v141/DSP2833x_common/source/DSP2833x_DefaultIsr.c",l
      31              
      32                      .dwfde $C$DW$CIE, _INT13_ISR
      33              
      34              ;***************************************************************
      35              ;* FNAME: _INT13_ISR                    FR SIZE:   4           *
      36              ;*                                                             *
      37              ;* FUNCTION ENVIRONMENT                                        *
      38              ;*                                                             *
      39              ;* FUNCTION PROPERTIES                                         *
      40              ;*                            0 Parameter,  0 Auto,  4 SOE     *
      41              ;***************************************************************
      42              
      43 00000000       _INT13_ISR:
      44                      .dwcfi  cfa_offset, -2
      45                      .dwcfi  save_reg_to_mem, 26, 0
      46 00000000 761B          ASP       ; [CPU_] 
      47 00000001 FFF0          PUSH      RB                    ; [CPU_] 
      48                      .dwcfi  save_reg_to_mem, 73, 2
      49                      .dwcfi  save_reg_to_mem, 74, 3
      50                      .dwcfi  cfa_offset, -4
      51 00000002 E200          MOV32     *SP++,STF             ; [CPU_] 
         00000003 00BD 
      52                      .dwcfi  save_reg_to_mem, 39, 4
      53                      .dwcfi  save_reg_to_mem, 40, 5
      54                      .dwcfi  cfa_offset, -6
TMS320C2000 Assembler PC v15.12.1 Sat Jun 25 21:32:07 2016

Tools Copyright (c) 1996-2015 Texas Instruments Incorporated
C:\Users\RJKJ_ZGH\AppData\Local\Temp\0832410                         PAGE    2

      55 00000004 E630          SETFLG    RNDF32=1, RNDF64=1    ; [CPU_] 
         00000005 0600 
      56 00000006 2942          CLRC      PAGE0,OVM             ; [CPU_] 
      57 00000007 5616          CLRC      AMODE                 ; [CPU_] 
      58                      .dwpsn  file "D:/work/DSP/Steering_Engine/F2833x/v141/DSP2833x_common/source/DSP2833x_DefaultIsr.c",l
      59 00000008 7625        ESTOP0
      60 00000009       $C$L1:    
      61                      .dwpsn  file "D:/work/DSP/Steering_Engine/F2833x/v141/DSP2833x_common/source/DSP2833x_DefaultIsr.c",l
      62 00000009 6F00          B         $C$L1,UNC             ; [CPU_] |38| 
      63                      ; branch occurs ; [] |38| 
      64                      .dwattr $C$DW$1, DW_AT_TI_end_file("D:/work/DSP/Steering_Engine/F2833x/v141/DSP2833x_common/source/DS
      65                      .dwattr $C$DW$1, DW_AT_TI_end_line(0x27)
      66                      .dwattr $C$DW$1, DW_AT_TI_end_column(0x01)
      67                      .dwendentry
      68                      .dwendtag $C$DW$1
      69              
      70 0000000a               .sect   ".text:retain"
      71                      .retain
      72                      .retainrefs
      73                      .global _INT14_ISR
      74              
      75              $C$DW$2 .dwtag  DW_TAG_subprogram
      76                      .dwattr $C$DW$2, DW_AT_name("INT14_ISR")
      77                      .dwattr $C$DW$2, DW_AT_low_pc(_INT14_ISR)
      78                      .dwattr $C$DW$2, DW_AT_high_pc(0x00)
      79                      .dwattr $C$DW$2, DW_AT_TI_symbol_name("_INT14_ISR")
      80                      .dwattr $C$DW$2, DW_AT_external
      81                      .dwattr $C$DW$2, DW_AT_TI_begin_file("D:/work/DSP/Steering_Engine/F2833x/v141/DSP2833x_common/source/
      82                      .dwattr $C$DW$2, DW_AT_TI_begin_line(0x2a)
      83                      .dwattr $C$DW$2, DW_AT_TI_begin_column(0x10)
      84                      .dwattr $C$DW$2, DW_AT_TI_interrupt
      85                      .dwattr $C$DW$2, DW_AT_TI_max_frame_size(-6)
      86                      .dwpsn  file "D:/work/DSP/Steering_Engine/F2833x/v141/DSP2833x_common/source/DSP2833x_DefaultIsr.c",l
      87              
      88                      .dwfde $C$DW$CIE, _INT14_ISR
      89              
      90              ;***************************************************************
      91              ;* FNAME: _INT14_ISR                    FR SIZE:   4           *
      92              ;*                                                             *
      93              ;* FUNCTION ENVIRONMENT                                        *
      94              ;*                                                             *
      95              ;* FUNCTION PROPERTIES                                         *
      96              ;*                            0 Parameter,  0 Auto,  4 SOE     *
      97              ;***************************************************************
      98              
      99 0000000a       _INT14_ISR:
     100                      .dwcfi  cfa_offset, -2
     101                      .dwcfi  save_reg_to_mem, 26, 0
     102 0000000a 761B          ASP       ; [CPU_] 
     103 0000000b FFF0          PUSH      RB                    ; [CPU_] 
     104                      .dwcfi  save_reg_to_mem, 73, 2
     105                      .dwcfi  save_reg_to_mem, 74, 3
     106                      .dwcfi  cfa_offset, -4
     107 0000000c E200          MOV32     *SP++,STF             ; [CPU_] 
         0000000d 00BD 
TMS320C2000 Assembler PC v15.12.1 Sat Jun 25 21:32:07 2016

Tools Copyright (c) 1996-2015 Texas Instruments Incorporated
C:\Users\RJKJ_ZGH\AppData\Local\Temp\0832410                         PAGE    3

     108                      .dwcfi  save_reg_to_mem, 39, 4
     109                      .dwcfi  save_reg_to_mem, 40, 5
     110                      .dwcfi  cfa_offset, -6
     111 0000000e E630          SETFLG    RNDF32=1, RNDF64=1    ; [CPU_] 
         0000000f 0600 
     112 00000010 2942          CLRC      PAGE0,OVM             ; [CPU_] 
     113 00000011 5616          CLRC      AMODE                 ; [CPU_] 
     114                      .dwpsn  file "D:/work/DSP/Steering_Engine/F2833x/v141/DSP2833x_common/source/DSP2833x_DefaultIsr.c",l
     115 00000012 7625        ESTOP0
     116 00000013       $C$L2:    
     117                      .dwpsn  file "D:/work/DSP/Steering_Engine/F2833x/v141/DSP2833x_common/source/DSP2833x_DefaultIsr.c",l
     118 00000013 6F00          B         $C$L2,UNC             ; [CPU_] |49| 
     119                      ; branch occurs ; [] |49| 
     120                      .dwattr $C$DW$2, DW_AT_TI_end_file("D:/work/DSP/Steering_Engine/F2833x/v141/DSP2833x_common/source/DS
     121                      .dwattr $C$DW$2, DW_AT_TI_end_line(0x32)
     122                      .dwattr $C$DW$2, DW_AT_TI_end_column(0x01)
     123                      .dwendentry
     124                      .dwendtag $C$DW$2
     125              
     126 00000014               .sect   ".text:retain"
     127                      .retain
     128                      .retainrefs
     129                      .global _DATALOG_ISR
     130              
     131              $C$DW$3 .dwtag  DW_TAG_subprogram
     132                      .dwattr $C$DW$3, DW_AT_name("DATALOG_ISR")
     133                      .dwattr $C$DW$3, DW_AT_low_pc(_DATALOG_ISR)
     134                      .dwattr $C$DW$3, DW_AT_high_pc(0x00)
     135                      .dwattr $C$DW$3, DW_AT_TI_symbol_name("_DATALOG_ISR")
     136                      .dwattr $C$DW$3, DW_AT_external
     137                      .dwattr $C$DW$3, DW_AT_TI_begin_file("D:/work/DSP/Steering_Engine/F2833x/v141/DSP2833x_common/source/
     138                      .dwattr $C$DW$3, DW_AT_TI_begin_line(0x34)
     139                      .dwattr $C$DW$3, DW_AT_TI_begin_column(0x10)
     140                      .dwattr $C$DW$3, DW_AT_TI_interrupt
     141                      .dwattr $C$DW$3, DW_AT_TI_max_frame_size(-6)
     142                      .dwpsn  file "D:/work/DSP/Steering_Engine/F2833x/v141/DSP2833x_common/source/DSP2833x_DefaultIsr.c",l
     143              
     144                      .dwfde $C$DW$CIE, _DATALOG_ISR
     145              
     146              ;***************************************************************
     147              ;* FNAME: _DATALOG_ISR                  FR SIZE:   4           *
     148              ;*                                                             *
     149              ;* FUNCTION ENVIRONMENT                                        *
     150              ;*                                                             *
     151              ;* FUNCTION PROPERTIES                                         *
     152              ;*                            0 Parameter,  0 Auto,  4 SOE     *
     153              ;***************************************************************
     154              
     155 00000014       _DATALOG_ISR:
     156                      .dwcfi  cfa_offset, -2
     157                      .dwcfi  save_reg_to_mem, 26, 0
     158 00000014 761B          ASP       ; [CPU_] 
     159 00000015 FFF0          PUSH      RB                    ; [CPU_] 
     160                      .dwcfi  save_reg_to_mem, 73, 2
     161                      .dwcfi  save_reg_to_mem, 74, 3
TMS320C2000 Assembler PC v15.12.1 Sat Jun 25 21:32:07 2016

Tools Copyright (c) 1996-2015 Texas Instruments Incorporated
C:\Users\RJKJ_ZGH\AppData\Local\Temp\0832410                         PAGE    4

     162                      .dwcfi  cfa_offset, -4
     163 00000016 E200          MOV32     *SP++,STF             ; [CPU_] 
         00000017 00BD 
     164                      .dwcfi  save_reg_to_mem, 39, 4
     165                      .dwcfi  save_reg_to_mem, 40, 5
     166                      .dwcfi  cfa_offset, -6
     167 00000018 E630          SETFLG    RNDF32=1, RNDF64=1    ; [CPU_] 
         00000019 0600 
     168 0000001a 2942          CLRC      PAGE0,OVM             ; [CPU_] 
     169 0000001b 5616          CLRC      AMODE                 ; [CPU_] 
     170                      .dwpsn  file "D:/work/DSP/Steering_Engine/F2833x/v141/DSP2833x_common/source/DSP2833x_DefaultIsr.c",l
     171 0000001c 7625        ESTOP0
     172 0000001d       $C$L3:    
     173                      .dwpsn  file "D:/work/DSP/Steering_Engine/F2833x/v141/DSP2833x_common/source/DSP2833x_DefaultIsr.c",l
     174 0000001d 6F00          B         $C$L3,UNC             ; [CPU_] |59| 
     175                      ; branch occurs ; [] |59| 
     176                      .dwattr $C$DW$3, DW_AT_TI_end_file("D:/work/DSP/Steering_Engine/F2833x/v141/DSP2833x_common/source/DS
     177                      .dwattr $C$DW$3, DW_AT_TI_end_line(0x3c)
     178                      .dwattr $C$DW$3, DW_AT_TI_end_column(0x01)
     179                      .dwendentry
     180                      .dwendtag $C$DW$3
     181              
     182 0000001e               .sect   ".text:retain"
     183                      .retain
     184                      .retainrefs
     185                      .global _RTOSINT_ISR
     186              
     187              $C$DW$4 .dwtag  DW_TAG_subprogram
     188                      .dwattr $C$DW$4, DW_AT_name("RTOSINT_ISR")
     189                      .dwattr $C$DW$4, DW_AT_low_pc(_RTOSINT_ISR)
     190                      .dwattr $C$DW$4, DW_AT_high_pc(0x00)
     191                      .dwattr $C$DW$4, DW_AT_TI_symbol_name("_RTOSINT_ISR")
     192                      .dwattr $C$DW$4, DW_AT_external
     193                      .dwattr $C$DW$4, DW_AT_TI_begin_file("D:/work/DSP/Steering_Engine/F2833x/v141/DSP2833x_common/source/
     194                      .dwattr $C$DW$4, DW_AT_TI_begin_line(0x3e)
     195                      .dwattr $C$DW$4, DW_AT_TI_begin_column(0x10)
     196                      .dwattr $C$DW$4, DW_AT_TI_interrupt
     197                      .dwattr $C$DW$4, DW_AT_TI_max_frame_size(-6)
     198                      .dwpsn  file "D:/work/DSP/Steering_Engine/F2833x/v141/DSP2833x_common/source/DSP2833x_DefaultIsr.c",l
     199              
     200                      .dwfde $C$DW$CIE, _RTOSINT_ISR
     201              
     202              ;***************************************************************
     203              ;* FNAME: _RTOSINT_ISR                  FR SIZE:   4           *
     204              ;*                                                             *
     205              ;* FUNCTION ENVIRONMENT                                        *
     206              ;*                                                             *
     207              ;* FUNCTION PROPERTIES                                         *
     208              ;*                            0 Parameter,  0 Auto,  4 SOE     *
     209              ;***************************************************************
     210              
     211 0000001e       _RTOSINT_ISR:
     212                      .dwcfi  cfa_offset, -2
     213                      .dwcfi  save_reg_to_mem, 26, 0
     214 0000001e 761B          ASP       ; [CPU_] 
TMS320C2000 Assembler PC v15.12.1 Sat Jun 25 21:32:07 2016

Tools Copyright (c) 1996-2015 Texas Instruments Incorporated
C:\Users\RJKJ_ZGH\AppData\Local\Temp\0832410                         PAGE    5

     215 0000001f FFF0          PUSH      RB                    ; [CPU_] 
     216                      .dwcfi  save_reg_to_mem, 73, 2
     217                      .dwcfi  save_reg_to_mem, 74, 3
     218                      .dwcfi  cfa_offset, -4
     219 00000020 E200          MOV32     *SP++,STF             ; [CPU_] 
         00000021 00BD 
     220                      .dwcfi  save_reg_to_mem, 39, 4
     221                      .dwcfi  save_reg_to_mem, 40, 5
     222                      .dwcfi  cfa_offset, -6
     223 00000022 E630          SETFLG    RNDF32=1, RNDF64=1    ; [CPU_] 
         00000023 0600 
     224 00000024 2942          CLRC      PAGE0,OVM             ; [CPU_] 
     225 00000025 5616          CLRC      AMODE                 ; [CPU_] 
     226                      .dwpsn  file "D:/work/DSP/Steering_Engine/F2833x/v141/DSP2833x_common/source/DSP2833x_DefaultIsr.c",l
     227 00000026 7625        ESTOP0
     228 00000027       $C$L4:    
     229                      .dwpsn  file "D:/work/DSP/Steering_Engine/F2833x/v141/DSP2833x_common/source/DSP2833x_DefaultIsr.c",l
     230 00000027 6F00          B         $C$L4,UNC             ; [CPU_] |69| 
     231                      ; branch occurs ; [] |69| 
     232                      .dwattr $C$DW$4, DW_AT_TI_end_file("D:/work/DSP/Steering_Engine/F2833x/v141/DSP2833x_common/source/DS
     233                      .dwattr $C$DW$4, DW_AT_TI_end_line(0x46)
     234                      .dwattr $C$DW$4, DW_AT_TI_end_column(0x01)
     235                      .dwendentry
     236                      .dwendtag $C$DW$4
     237              
     238 00000028               .sect   ".text:retain"
     239                      .retain
     240                      .retainrefs
     241                      .global _EMUINT_ISR
     242              
     243              $C$DW$5 .dwtag  DW_TAG_subprogram
     244                      .dwattr $C$DW$5, DW_AT_name("EMUINT_ISR")
     245                      .dwattr $C$DW$5, DW_AT_low_pc(_EMUINT_ISR)
     246                      .dwattr $C$DW$5, DW_AT_high_pc(0x00)
     247                      .dwattr $C$DW$5, DW_AT_TI_symbol_name("_EMUINT_ISR")
     248                      .dwattr $C$DW$5, DW_AT_external
     249                      .dwattr $C$DW$5, DW_AT_TI_begin_file("D:/work/DSP/Steering_Engine/F2833x/v141/DSP2833x_common/source/
     250                      .dwattr $C$DW$5, DW_AT_TI_begin_line(0x48)
     251                      .dwattr $C$DW$5, DW_AT_TI_begin_column(0x10)
     252                      .dwattr $C$DW$5, DW_AT_TI_interrupt
     253                      .dwattr $C$DW$5, DW_AT_TI_max_frame_size(-6)
     254                      .dwpsn  file "D:/work/DSP/Steering_Engine/F2833x/v141/DSP2833x_common/source/DSP2833x_DefaultIsr.c",l
     255              
     256                      .dwfde $C$DW$CIE, _EMUINT_ISR
     257              
     258              ;***************************************************************
     259              ;* FNAME: _EMUINT_ISR                   FR SIZE:   4           *
     260              ;*                                                             *
     261              ;* FUNCTION ENVIRONMENT                                        *
     262              ;*                                                             *
     263              ;* FUNCTION PROPERTIES                                         *
     264              ;*                            0 Parameter,  0 Auto,  4 SOE     *
     265              ;***************************************************************
     266              
     267 00000028       _EMUINT_ISR:
TMS320C2000 Assembler PC v15.12.1 Sat Jun 25 21:32:07 2016

Tools Copyright (c) 1996-2015 Texas Instruments Incorporated
C:\Users\RJKJ_ZGH\AppData\Local\Temp\0832410                         PAGE    6

     268                      .dwcfi  cfa_offset, -2
     269                      .dwcfi  save_reg_to_mem, 26, 0
     270 00000028 761B          ASP       ; [CPU_] 
     271 00000029 FFF0          PUSH      RB                    ; [CPU_] 
     272                      .dwcfi  save_reg_to_mem, 73, 2
     273                      .dwcfi  save_reg_to_mem, 74, 3
     274                      .dwcfi  cfa_offset, -4
     275 0000002a E200          MOV32     *SP++,STF             ; [CPU_] 
         0000002b 00BD 
     276                      .dwcfi  save_reg_to_mem, 39, 4
     277                      .dwcfi  save_reg_to_mem, 40, 5
     278                      .dwcfi  cfa_offset, -6
     279 0000002c E630          SETFLG    RNDF32=1, RNDF64=1    ; [CPU_] 
         0000002d 0600 
     280 0000002e 2942          CLRC      PAGE0,OVM             ; [CPU_] 
     281 0000002f 5616          CLRC      AMODE                 ; [CPU_] 
     282                      .dwpsn  file "D:/work/DSP/Steering_Engine/F2833x/v141/DSP2833x_common/source/DSP2833x_DefaultIsr.c",l
     283 00000030 7625        ESTOP0
     284 00000031       $C$L5:    
     285                      .dwpsn  file "D:/work/DSP/Steering_Engine/F2833x/v141/DSP2833x_common/source/DSP2833x_DefaultIsr.c",l
     286 00000031 6F00          B         $C$L5,UNC             ; [CPU_] |79| 
     287                      ; branch occurs ; [] |79| 
     288                      .dwattr $C$DW$5, DW_AT_TI_end_file("D:/work/DSP/Steering_Engine/F2833x/v141/DSP2833x_common/source/DS
     289                      .dwattr $C$DW$5, DW_AT_TI_end_line(0x50)
     290                      .dwattr $C$DW$5, DW_AT_TI_end_column(0x01)
     291                      .dwendentry
     292                      .dwendtag $C$DW$5
     293              
     294 00000032               .sect   ".text:retain"
     295                      .retain
     296                      .retainrefs
     297                      .global _NMI_ISR
     298              
     299              $C$DW$6 .dwtag  DW_TAG_subprogram
     300                      .dwattr $C$DW$6, DW_AT_name("NMI_ISR")
     301                      .dwattr $C$DW$6, DW_AT_low_pc(_NMI_ISR)
     302                      .dwattr $C$DW$6, DW_AT_high_pc(0x00)
     303                      .dwattr $C$DW$6, DW_AT_TI_symbol_name("_NMI_ISR")
     304                      .dwattr $C$DW$6, DW_AT_external
     305                      .dwattr $C$DW$6, DW_AT_TI_begin_file("D:/work/DSP/Steering_Engine/F2833x/v141/DSP2833x_common/source/
     306                      .dwattr $C$DW$6, DW_AT_TI_begin_line(0x52)
     307                      .dwattr $C$DW$6, DW_AT_TI_begin_column(0x10)
     308                      .dwattr $C$DW$6, DW_AT_TI_interrupt
     309                      .dwattr $C$DW$6, DW_AT_TI_max_frame_size(-6)
     310                      .dwpsn  file "D:/work/DSP/Steering_Engine/F2833x/v141/DSP2833x_common/source/DSP2833x_DefaultIsr.c",l
     311              
     312                      .dwfde $C$DW$CIE, _NMI_ISR
     313              
     314              ;***************************************************************
     315              ;* FNAME: _NMI_ISR                      FR SIZE:   4           *
     316              ;*                                                             *
     317              ;* FUNCTION ENVIRONMENT                                        *
     318              ;*                                                             *
     319              ;* FUNCTION PROPERTIES                                         *
     320              ;*                            0 Parameter,  0 Auto,  4 SOE     *
TMS320C2000 Assembler PC v15.12.1 Sat Jun 25 21:32:07 2016

Tools Copyright (c) 1996-2015 Texas Instruments Incorporated
C:\Users\RJKJ_ZGH\AppData\Local\Temp\0832410                         PAGE    7

     321              ;***************************************************************
     322              
     323 00000032       _NMI_ISR:
     324                      .dwcfi  cfa_offset, -2
     325                      .dwcfi  save_reg_to_mem, 26, 0
     326 00000032 761B          ASP       ; [CPU_] 
     327 00000033 FFF0          PUSH      RB                    ; [CPU_] 
     328                      .dwcfi  save_reg_to_mem, 73, 2
     329                      .dwcfi  save_reg_to_mem, 74, 3
     330                      .dwcfi  cfa_offset, -4
     331 00000034 E200          MOV32     *SP++,STF             ; [CPU_] 
         00000035 00BD 
     332                      .dwcfi  save_reg_to_mem, 39, 4
     333                      .dwcfi  save_reg_to_mem, 40, 5
     334                      .dwcfi  cfa_offset, -6
     335 00000036 E630          SETFLG    RNDF32=1, RNDF64=1    ; [CPU_] 
         00000037 0600 
     336 00000038 2942          CLRC      PAGE0,OVM             ; [CPU_] 
     337 00000039 5616          CLRC      AMODE                 ; [CPU_] 
     338                      .dwpsn  file "D:/work/DSP/Steering_Engine/F2833x/v141/DSP2833x_common/source/DSP2833x_DefaultIsr.c",l
     339 0000003a 7625        ESTOP0
     340 0000003b       $C$L6:    
     341                      .dwpsn  file "D:/work/DSP/Steering_Engine/F2833x/v141/DSP2833x_common/source/DSP2833x_DefaultIsr.c",l
     342 0000003b 6F00          B         $C$L6,UNC             ; [CPU_] |89| 
     343                      ; branch occurs ; [] |89| 
     344                      .dwattr $C$DW$6, DW_AT_TI_end_file("D:/work/DSP/Steering_Engine/F2833x/v141/DSP2833x_common/source/DS
     345                      .dwattr $C$DW$6, DW_AT_TI_end_line(0x5a)
     346                      .dwattr $C$DW$6, DW_AT_TI_end_column(0x01)
     347                      .dwendentry
     348                      .dwendtag $C$DW$6
     349              
     350 0000003c               .sect   ".text:retain"
     351                      .retain
     352                      .retainrefs
     353                      .global _ILLEGAL_ISR
     354              
     355              $C$DW$7 .dwtag  DW_TAG_subprogram
     356                      .dwattr $C$DW$7, DW_AT_name("ILLEGAL_ISR")
     357                      .dwattr $C$DW$7, DW_AT_low_pc(_ILLEGAL_ISR)
     358                      .dwattr $C$DW$7, DW_AT_high_pc(0x00)
     359                      .dwattr $C$DW$7, DW_AT_TI_symbol_name("_ILLEGAL_ISR")
     360                      .dwattr $C$DW$7, DW_AT_external
     361                      .dwattr $C$DW$7, DW_AT_TI_begin_file("D:/work/DSP/Steering_Engine/F2833x/v141/DSP2833x_common/source/
     362                      .dwattr $C$DW$7, DW_AT_TI_begin_line(0x5c)
     363                      .dwattr $C$DW$7, DW_AT_TI_begin_column(0x10)
     364                      .dwattr $C$DW$7, DW_AT_TI_interrupt
     365                      .dwattr $C$DW$7, DW_AT_TI_max_frame_size(-6)
     366                      .dwpsn  file "D:/work/DSP/Steering_Engine/F2833x/v141/DSP2833x_common/source/DSP2833x_DefaultIsr.c",l
     367              
     368                      .dwfde $C$DW$CIE, _ILLEGAL_ISR
     369              
     370              ;***************************************************************
     371              ;* FNAME: _ILLEGAL_ISR                  FR SIZE:   4           *
     372              ;*                                                             *
     373              ;* FUNCTION ENVIRONMENT                                        *
TMS320C2000 Assembler PC v15.12.1 Sat Jun 25 21:32:07 2016

Tools Copyright (c) 1996-2015 Texas Instruments Incorporated
C:\Users\RJKJ_ZGH\AppData\Local\Temp\0832410                         PAGE    8

     374              ;*                                                             *
     375              ;* FUNCTION PROPERTIES                                         *
     376              ;*                            0 Parameter,  0 Auto,  4 SOE     *
     377              ;***************************************************************
     378              
     379 0000003c       _ILLEGAL_ISR:
     380                      .dwcfi  cfa_offset, -2
     381                      .dwcfi  save_reg_to_mem, 26, 0
     382 0000003c 761B          ASP       ; [CPU_] 
     383 0000003d FFF0          PUSH      RB                    ; [CPU_] 
     384                      .dwcfi  save_reg_to_mem, 73, 2
     385                      .dwcfi  save_reg_to_mem, 74, 3
     386                      .dwcfi  cfa_offset, -4
     387 0000003e E200          MOV32     *SP++,STF             ; [CPU_] 
         0000003f 00BD 
     388                      .dwcfi  save_reg_to_mem, 39, 4
     389                      .dwcfi  save_reg_to_mem, 40, 5
     390                      .dwcfi  cfa_offset, -6
     391 00000040 E630          SETFLG    RNDF32=1, RNDF64=1    ; [CPU_] 
         00000041 0600 
     392 00000042 2942          CLRC      PAGE0,OVM             ; [CPU_] 
     393 00000043 5616          CLRC      AMODE                 ; [CPU_] 
     394                      .dwpsn  file "D:/work/DSP/Steering_Engine/F2833x/v141/DSP2833x_common/source/DSP2833x_DefaultIsr.c",l
     395 00000044 7625            ESTOP0
     396 00000045       $C$L7:    
     397                      .dwpsn  file "D:/work/DSP/Steering_Engine/F2833x/v141/DSP2833x_common/source/DSP2833x_DefaultIsr.c",l
     398 00000045 6F00          B         $C$L7,UNC             ; [CPU_] |99| 
     399                      ; branch occurs ; [] |99| 
     400                      .dwattr $C$DW$7, DW_AT_TI_end_file("D:/work/DSP/Steering_Engine/F2833x/v141/DSP2833x_common/source/DS
     401                      .dwattr $C$DW$7, DW_AT_TI_end_line(0x65)
     402                      .dwattr $C$DW$7, DW_AT_TI_end_column(0x01)
     403                      .dwendentry
     404                      .dwendtag $C$DW$7
     405              
     406 00000046               .sect   ".text:retain"
     407                      .retain
     408                      .retainrefs
     409                      .global _USER1_ISR
     410              
     411              $C$DW$8 .dwtag  DW_TAG_subprogram
     412                      .dwattr $C$DW$8, DW_AT_name("USER1_ISR")
     413                      .dwattr $C$DW$8, DW_AT_low_pc(_USER1_ISR)
     414                      .dwattr $C$DW$8, DW_AT_high_pc(0x00)
     415                      .dwattr $C$DW$8, DW_AT_TI_symbol_name("_USER1_ISR")
     416                      .dwattr $C$DW$8, DW_AT_external
     417                      .dwattr $C$DW$8, DW_AT_TI_begin_file("D:/work/DSP/Steering_Engine/F2833x/v141/DSP2833x_common/source/
     418                      .dwattr $C$DW$8, DW_AT_TI_begin_line(0x68)
     419                      .dwattr $C$DW$8, DW_AT_TI_begin_column(0x10)
     420                      .dwattr $C$DW$8, DW_AT_TI_interrupt
     421                      .dwattr $C$DW$8, DW_AT_TI_max_frame_size(-6)
     422                      .dwpsn  file "D:/work/DSP/Steering_Engine/F2833x/v141/DSP2833x_common/source/DSP2833x_DefaultIsr.c",l
     423              
     424                      .dwfde $C$DW$CIE, _USER1_ISR
     425              
     426              ;***************************************************************
TMS320C2000 Assembler PC v15.12.1 Sat Jun 25 21:32:07 2016

Tools Copyright (c) 1996-2015 Texas Instruments Incorporated
C:\Users\RJKJ_ZGH\AppData\Local\Temp\0832410                         PAGE    9

     427              ;* FNAME: _USER1_ISR                    FR SIZE:   4           *
     428              ;*                                                             *
     429              ;* FUNCTION ENVIRONMENT                                        *
     430              ;*                                                             *
     431              ;* FUNCTION PROPERTIES                                         *
     432              ;*                            0 Parameter,  0 Auto,  4 SOE     *
     433              ;***************************************************************
     434              
     435 00000046       _USER1_ISR:
     436                      .dwcfi  cfa_offset, -2
     437                      .dwcfi  save_reg_to_mem, 26, 0
     438 00000046 761B          ASP       ; [CPU_] 
     439 00000047 FFF0          PUSH      RB                    ; [CPU_] 
     440                      .dwcfi  save_reg_to_mem, 73, 2
     441                      .dwcfi  save_reg_to_mem, 74, 3
     442                      .dwcfi  cfa_offset, -4
     443 00000048 E200          MOV32     *SP++,STF             ; [CPU_] 
         00000049 00BD 
     444                      .dwcfi  save_reg_to_mem, 39, 4
     445                      .dwcfi  save_reg_to_mem, 40, 5
     446                      .dwcfi  cfa_offset, -6
     447 0000004a E630          SETFLG    RNDF32=1, RNDF64=1    ; [CPU_] 
         0000004b 0600 
     448 0000004c 2942          CLRC      PAGE0,OVM             ; [CPU_] 
     449 0000004d 5616          CLRC      AMODE                 ; [CPU_] 
     450                      .dwpsn  file "D:/work/DSP/Steering_Engine/F2833x/v141/DSP2833x_common/source/DSP2833x_DefaultIsr.c",l
     451 0000004e 7625        ESTOP0
     452 0000004f       $C$L8:    
     453                      .dwpsn  file "D:/work/DSP/Steering_Engine/F2833x/v141/DSP2833x_common/source/DSP2833x_DefaultIsr.c",l
     454 0000004f 6F00          B         $C$L8,UNC             ; [CPU_] |111| 
     455                      ; branch occurs ; [] |111| 
     456                      .dwattr $C$DW$8, DW_AT_TI_end_file("D:/work/DSP/Steering_Engine/F2833x/v141/DSP2833x_common/source/DS
     457                      .dwattr $C$DW$8, DW_AT_TI_end_line(0x71)
     458                      .dwattr $C$DW$8, DW_AT_TI_end_column(0x01)
     459                      .dwendentry
     460                      .dwendtag $C$DW$8
     461              
     462 00000050               .sect   ".text:retain"
     463                      .retain
     464                      .retainrefs
     465                      .global _USER2_ISR
     466              
     467              $C$DW$9 .dwtag  DW_TAG_subprogram
     468                      .dwattr $C$DW$9, DW_AT_name("USER2_ISR")
     469                      .dwattr $C$DW$9, DW_AT_low_pc(_USER2_ISR)
     470                      .dwattr $C$DW$9, DW_AT_high_pc(0x00)
     471                      .dwattr $C$DW$9, DW_AT_TI_symbol_name("_USER2_ISR")
     472                      .dwattr $C$DW$9, DW_AT_external
     473                      .dwattr $C$DW$9, DW_AT_TI_begin_file("D:/work/DSP/Steering_Engine/F2833x/v141/DSP2833x_common/source/
     474                      .dwattr $C$DW$9, DW_AT_TI_begin_line(0x73)
     475                      .dwattr $C$DW$9, DW_AT_TI_begin_column(0x10)
     476                      .dwattr $C$DW$9, DW_AT_TI_interrupt
     477                      .dwattr $C$DW$9, DW_AT_TI_max_frame_size(-6)
     478                      .dwpsn  file "D:/work/DSP/Steering_Engine/F2833x/v141/DSP2833x_common/source/DSP2833x_DefaultIsr.c",l
     479              
TMS320C2000 Assembler PC v15.12.1 Sat Jun 25 21:32:07 2016

Tools Copyright (c) 1996-2015 Texas Instruments Incorporated
C:\Users\RJKJ_ZGH\AppData\Local\Temp\0832410                         PAGE   10

     480                      .dwfde $C$DW$CIE, _USER2_ISR
     481              
     482              ;***************************************************************
     483              ;* FNAME: _USER2_ISR                    FR SIZE:   4           *
     484              ;*                                                             *
     485              ;* FUNCTION ENVIRONMENT                                        *
     486              ;*                                                             *
     487              ;* FUNCTION PROPERTIES                                         *
     488              ;*                            0 Parameter,  0 Auto,  4 SOE     *
     489              ;***************************************************************
     490              
     491 00000050       _USER2_ISR:
     492                      .dwcfi  cfa_offset, -2
     493                      .dwcfi  save_reg_to_mem, 26, 0
     494 00000050 761B          ASP       ; [CPU_] 
     495 00000051 FFF0          PUSH      RB                    ; [CPU_] 
     496                      .dwcfi  save_reg_to_mem, 73, 2
     497                      .dwcfi  save_reg_to_mem, 74, 3
     498                      .dwcfi  cfa_offset, -4
     499 00000052 E200          MOV32     *SP++,STF             ; [CPU_] 
         00000053 00BD 
     500                      .dwcfi  save_reg_to_mem, 39, 4
     501                      .dwcfi  save_reg_to_mem, 40, 5
     502                      .dwcfi  cfa_offset, -6
     503 00000054 E630          SETFLG    RNDF32=1, RNDF64=1    ; [CPU_] 
         00000055 0600 
     504 00000056 2942          CLRC      PAGE0,OVM             ; [CPU_] 
     505 00000057 5616          CLRC      AMODE                 ; [CPU_] 
     506                      .dwpsn  file "D:/work/DSP/Steering_Engine/F2833x/v141/DSP2833x_common/source/DSP2833x_DefaultIsr.c",l
     507 00000058 7625        ESTOP0
     508 00000059       $C$L9:    
     509                      .dwpsn  file "D:/work/DSP/Steering_Engine/F2833x/v141/DSP2833x_common/source/DSP2833x_DefaultIsr.c",l
     510 00000059 6F00          B         $C$L9,UNC             ; [CPU_] |122| 
     511                      ; branch occurs ; [] |122| 
     512                      .dwattr $C$DW$9, DW_AT_TI_end_file("D:/work/DSP/Steering_Engine/F2833x/v141/DSP2833x_common/source/DS
     513                      .dwattr $C$DW$9, DW_AT_TI_end_line(0x7d)
     514                      .dwattr $C$DW$9, DW_AT_TI_end_column(0x01)
     515                      .dwendentry
     516                      .dwendtag $C$DW$9
     517              
     518 0000005a               .sect   ".text:retain"
     519                      .retain
     520                      .retainrefs
     521                      .global _USER3_ISR
     522              
     523              $C$DW$10        .dwtag  DW_TAG_subprogram
     524                      .dwattr $C$DW$10, DW_AT_name("USER3_ISR")
     525                      .dwattr $C$DW$10, DW_AT_low_pc(_USER3_ISR)
     526                      .dwattr $C$DW$10, DW_AT_high_pc(0x00)
     527                      .dwattr $C$DW$10, DW_AT_TI_symbol_name("_USER3_ISR")
     528                      .dwattr $C$DW$10, DW_AT_external
     529                      .dwattr $C$DW$10, DW_AT_TI_begin_file("D:/work/DSP/Steering_Engine/F2833x/v141/DSP2833x_common/source
     530                      .dwattr $C$DW$10, DW_AT_TI_begin_line(0x7f)
     531                      .dwattr $C$DW$10, DW_AT_TI_begin_column(0x10)
     532                      .dwattr $C$DW$10, DW_AT_TI_interrupt
TMS320C2000 Assembler PC v15.12.1 Sat Jun 25 21:32:07 2016

Tools Copyright (c) 1996-2015 Texas Instruments Incorporated
C:\Users\RJKJ_ZGH\AppData\Local\Temp\0832410                         PAGE   11

     533                      .dwattr $C$DW$10, DW_AT_TI_max_frame_size(-6)
     534                      .dwpsn  file "D:/work/DSP/Steering_Engine/F2833x/v141/DSP2833x_common/source/DSP2833x_DefaultIsr.c",l
     535              
     536                      .dwfde $C$DW$CIE, _USER3_ISR
     537              
     538              ;***************************************************************
     539              ;* FNAME: _USER3_ISR                    FR SIZE:   4           *
     540              ;*                                                             *
     541              ;* FUNCTION ENVIRONMENT                                        *
     542              ;*                                                             *
     543              ;* FUNCTION PROPERTIES                                         *
     544              ;*                            0 Parameter,  0 Auto,  4 SOE     *
     545              ;***************************************************************
     546              
     547 0000005a       _USER3_ISR:
     548                      .dwcfi  cfa_offset, -2
     549                      .dwcfi  save_reg_to_mem, 26, 0
     550 0000005a 761B          ASP       ; [CPU_] 
     551 0000005b FFF0          PUSH      RB                    ; [CPU_] 
     552                      .dwcfi  save_reg_to_mem, 73, 2
     553                      .dwcfi  save_reg_to_mem, 74, 3
     554                      .dwcfi  cfa_offset, -4
     555 0000005c E200          MOV32     *SP++,STF             ; [CPU_] 
         0000005d 00BD 
     556                      .dwcfi  save_reg_to_mem, 39, 4
     557                      .dwcfi  save_reg_to_mem, 40, 5
     558                      .dwcfi  cfa_offset, -6
     559 0000005e E630          SETFLG    RNDF32=1, RNDF64=1    ; [CPU_] 
         0000005f 0600 
     560 00000060 2942          CLRC      PAGE0,OVM             ; [CPU_] 
     561 00000061 5616          CLRC      AMODE                 ; [CPU_] 
     562                      .dwpsn  file "D:/work/DSP/Steering_Engine/F2833x/v141/DSP2833x_common/source/DSP2833x_DefaultIsr.c",l
     563 00000062 7625        ESTOP0
     564 00000063       $C$L10:    
     565                      .dwpsn  file "D:/work/DSP/Steering_Engine/F2833x/v141/DSP2833x_common/source/DSP2833x_DefaultIsr.c",l
     566 00000063 6F00          B         $C$L10,UNC            ; [CPU_] |134| 
     567                      ; branch occurs ; [] |134| 
     568                      .dwattr $C$DW$10, DW_AT_TI_end_file("D:/work/DSP/Steering_Engine/F2833x/v141/DSP2833x_common/source/D
     569                      .dwattr $C$DW$10, DW_AT_TI_end_line(0x87)
     570                      .dwattr $C$DW$10, DW_AT_TI_end_column(0x01)
     571                      .dwendentry
     572                      .dwendtag $C$DW$10
     573              
     574 00000064               .sect   ".text:retain"
     575                      .retain
     576                      .retainrefs
     577                      .global _USER4_ISR
     578              
     579              $C$DW$11        .dwtag  DW_TAG_subprogram
     580                      .dwattr $C$DW$11, DW_AT_name("USER4_ISR")
     581                      .dwattr $C$DW$11, DW_AT_low_pc(_USER4_ISR)
     582                      .dwattr $C$DW$11, DW_AT_high_pc(0x00)
     583                      .dwattr $C$DW$11, DW_AT_TI_symbol_name("_USER4_ISR")
     584                      .dwattr $C$DW$11, DW_AT_external
     585                      .dwattr $C$DW$11, DW_AT_TI_begin_file("D:/work/DSP/Steering_Engine/F2833x/v141/DSP2833x_common/source
TMS320C2000 Assembler PC v15.12.1 Sat Jun 25 21:32:07 2016

Tools Copyright (c) 1996-2015 Texas Instruments Incorporated
C:\Users\RJKJ_ZGH\AppData\Local\Temp\0832410                         PAGE   12

     586                      .dwattr $C$DW$11, DW_AT_TI_begin_line(0x89)
     587                      .dwattr $C$DW$11, DW_AT_TI_begin_column(0x10)
     588                      .dwattr $C$DW$11, DW_AT_TI_interrupt
     589                      .dwattr $C$DW$11, DW_AT_TI_max_frame_size(-6)
     590                      .dwpsn  file "D:/work/DSP/Steering_Engine/F2833x/v141/DSP2833x_common/source/DSP2833x_DefaultIsr.c",l
     591              
     592                      .dwfde $C$DW$CIE, _USER4_ISR
     593              
     594              ;***************************************************************
     595              ;* FNAME: _USER4_ISR                    FR SIZE:   4           *
     596              ;*                                                             *
     597              ;* FUNCTION ENVIRONMENT                                        *
     598              ;*                                                             *
     599              ;* FUNCTION PROPERTIES                                         *
     600              ;*                            0 Parameter,  0 Auto,  4 SOE     *
     601              ;***************************************************************
     602              
     603 00000064       _USER4_ISR:
     604                      .dwcfi  cfa_offset, -2
     605                      .dwcfi  save_reg_to_mem, 26, 0
     606 00000064 761B          ASP       ; [CPU_] 
     607 00000065 FFF0          PUSH      RB                    ; [CPU_] 
     608                      .dwcfi  save_reg_to_mem, 73, 2
     609                      .dwcfi  save_reg_to_mem, 74, 3
     610                      .dwcfi  cfa_offset, -4
     611 00000066 E200          MOV32     *SP++,STF             ; [CPU_] 
         00000067 00BD 
     612                      .dwcfi  save_reg_to_mem, 39, 4
     613                      .dwcfi  save_reg_to_mem, 40, 5
     614                      .dwcfi  cfa_offset, -6
     615 00000068 E630          SETFLG    RNDF32=1, RNDF64=1    ; [CPU_] 
         00000069 0600 
     616 0000006a 2942          CLRC      PAGE0,OVM             ; [CPU_] 
     617 0000006b 5616          CLRC      AMODE                 ; [CPU_] 
     618                      .dwpsn  file "D:/work/DSP/Steering_Engine/F2833x/v141/DSP2833x_common/source/DSP2833x_DefaultIsr.c",l
     619 0000006c 7625        ESTOP0
     620 0000006d       $C$L11:    
     621                      .dwpsn  file "D:/work/DSP/Steering_Engine/F2833x/v141/DSP2833x_common/source/DSP2833x_DefaultIsr.c",l
     622 0000006d 6F00          B         $C$L11,UNC            ; [CPU_] |144| 
     623                      ; branch occurs ; [] |144| 
     624                      .dwattr $C$DW$11, DW_AT_TI_end_file("D:/work/DSP/Steering_Engine/F2833x/v141/DSP2833x_common/source/D
     625                      .dwattr $C$DW$11, DW_AT_TI_end_line(0x91)
     626                      .dwattr $C$DW$11, DW_AT_TI_end_column(0x01)
     627                      .dwendentry
     628                      .dwendtag $C$DW$11
     629              
     630 0000006e               .sect   ".text:retain"
     631                      .retain
     632                      .retainrefs
     633                      .global _USER5_ISR
     634              
     635              $C$DW$12        .dwtag  DW_TAG_subprogram
     636                      .dwattr $C$DW$12, DW_AT_name("USER5_ISR")
     637                      .dwattr $C$DW$12, DW_AT_low_pc(_USER5_ISR)
     638                      .dwattr $C$DW$12, DW_AT_high_pc(0x00)
TMS320C2000 Assembler PC v15.12.1 Sat Jun 25 21:32:07 2016

Tools Copyright (c) 1996-2015 Texas Instruments Incorporated
C:\Users\RJKJ_ZGH\AppData\Local\Temp\0832410                         PAGE   13

     639                      .dwattr $C$DW$12, DW_AT_TI_symbol_name("_USER5_ISR")
     640                      .dwattr $C$DW$12, DW_AT_external
     641                      .dwattr $C$DW$12, DW_AT_TI_begin_file("D:/work/DSP/Steering_Engine/F2833x/v141/DSP2833x_common/source
     642                      .dwattr $C$DW$12, DW_AT_TI_begin_line(0x93)
     643                      .dwattr $C$DW$12, DW_AT_TI_begin_column(0x10)
     644                      .dwattr $C$DW$12, DW_AT_TI_interrupt
     645                      .dwattr $C$DW$12, DW_AT_TI_max_frame_size(-6)
     646                      .dwpsn  file "D:/work/DSP/Steering_Engine/F2833x/v141/DSP2833x_common/source/DSP2833x_DefaultIsr.c",l
     647              
     648                      .dwfde $C$DW$CIE, _USER5_ISR
     649              
     650              ;***************************************************************
     651              ;* FNAME: _USER5_ISR                    FR SIZE:   4           *
     652              ;*                                                             *
     653              ;* FUNCTION ENVIRONMENT                                        *
     654              ;*                                                             *
     655              ;* FUNCTION PROPERTIES                                         *
     656              ;*                            0 Parameter,  0 Auto,  4 SOE     *
     657              ;***************************************************************
     658              
     659 0000006e       _USER5_ISR:
     660                      .dwcfi  cfa_offset, -2
     661                      .dwcfi  save_reg_to_mem, 26, 0
     662 0000006e 761B          ASP       ; [CPU_] 
     663 0000006f FFF0          PUSH      RB                    ; [CPU_] 
     664                      .dwcfi  save_reg_to_mem, 73, 2
     665                      .dwcfi  save_reg_to_mem, 74, 3
     666                      .dwcfi  cfa_offset, -4
     667 00000070 E200          MOV32     *SP++,STF             ; [CPU_] 
         00000071 00BD 
     668                      .dwcfi  save_reg_to_mem, 39, 4
     669                      .dwcfi  save_reg_to_mem, 40, 5
     670                      .dwcfi  cfa_offset, -6
     671 00000072 E630          SETFLG    RNDF32=1, RNDF64=1    ; [CPU_] 
         00000073 0600 
     672 00000074 2942          CLRC      PAGE0,OVM             ; [CPU_] 
     673 00000075 5616          CLRC      AMODE                 ; [CPU_] 
     674                      .dwpsn  file "D:/work/DSP/Steering_Engine/F2833x/v141/DSP2833x_common/source/DSP2833x_DefaultIsr.c",l
     675 00000076 7625        ESTOP0
     676 00000077       $C$L12:    
     677                      .dwpsn  file "D:/work/DSP/Steering_Engine/F2833x/v141/DSP2833x_common/source/DSP2833x_DefaultIsr.c",l
     678 00000077 6F00          B         $C$L12,UNC            ; [CPU_] |154| 
     679                      ; branch occurs ; [] |154| 
     680                      .dwattr $C$DW$12, DW_AT_TI_end_file("D:/work/DSP/Steering_Engine/F2833x/v141/DSP2833x_common/source/D
     681                      .dwattr $C$DW$12, DW_AT_TI_end_line(0x9b)
     682                      .dwattr $C$DW$12, DW_AT_TI_end_column(0x01)
     683                      .dwendentry
     684                      .dwendtag $C$DW$12
     685              
     686 00000078               .sect   ".text:retain"
     687                      .retain
     688                      .retainrefs
     689                      .global _USER6_ISR
     690              
     691              $C$DW$13        .dwtag  DW_TAG_subprogram
TMS320C2000 Assembler PC v15.12.1 Sat Jun 25 21:32:07 2016

Tools Copyright (c) 1996-2015 Texas Instruments Incorporated
C:\Users\RJKJ_ZGH\AppData\Local\Temp\0832410                         PAGE   14

     692                      .dwattr $C$DW$13, DW_AT_name("USER6_ISR")
     693                      .dwattr $C$DW$13, DW_AT_low_pc(_USER6_ISR)
     694                      .dwattr $C$DW$13, DW_AT_high_pc(0x00)
     695                      .dwattr $C$DW$13, DW_AT_TI_symbol_name("_USER6_ISR")
     696                      .dwattr $C$DW$13, DW_AT_external
     697                      .dwattr $C$DW$13, DW_AT_TI_begin_file("D:/work/DSP/Steering_Engine/F2833x/v141/DSP2833x_common/source
     698                      .dwattr $C$DW$13, DW_AT_TI_begin_line(0x9d)
     699                      .dwattr $C$DW$13, DW_AT_TI_begin_column(0x10)
     700                      .dwattr $C$DW$13, DW_AT_TI_interrupt
     701                      .dwattr $C$DW$13, DW_AT_TI_max_frame_size(-6)
     702                      .dwpsn  file "D:/work/DSP/Steering_Engine/F2833x/v141/DSP2833x_common/source/DSP2833x_DefaultIsr.c",l
     703              
     704                      .dwfde $C$DW$CIE, _USER6_ISR
     705              
     706              ;***************************************************************
     707              ;* FNAME: _USER6_ISR                    FR SIZE:   4           *
     708              ;*                                                             *
     709              ;* FUNCTION ENVIRONMENT                                        *
     710              ;*                                                             *
     711              ;* FUNCTION PROPERTIES                                         *
     712              ;*                            0 Parameter,  0 Auto,  4 SOE     *
     713              ;***************************************************************
     714              
     715 00000078       _USER6_ISR:
     716                      .dwcfi  cfa_offset, -2
     717                      .dwcfi  save_reg_to_mem, 26, 0
     718 00000078 761B          ASP       ; [CPU_] 
     719 00000079 FFF0          PUSH      RB                    ; [CPU_] 
     720                      .dwcfi  save_reg_to_mem, 73, 2
     721                      .dwcfi  save_reg_to_mem, 74, 3
     722                      .dwcfi  cfa_offset, -4
     723 0000007a E200          MOV32     *SP++,STF             ; [CPU_] 
         0000007b 00BD 
     724                      .dwcfi  save_reg_to_mem, 39, 4
     725                      .dwcfi  save_reg_to_mem, 40, 5
     726                      .dwcfi  cfa_offset, -6
     727 0000007c E630          SETFLG    RNDF32=1, RNDF64=1    ; [CPU_] 
         0000007d 0600 
     728 0000007e 2942          CLRC      PAGE0,OVM             ; [CPU_] 
     729 0000007f 5616          CLRC      AMODE                 ; [CPU_] 
     730                      .dwpsn  file "D:/work/DSP/Steering_Engine/F2833x/v141/DSP2833x_common/source/DSP2833x_DefaultIsr.c",l
     731 00000080 7625        ESTOP0
     732 00000081       $C$L13:    
     733                      .dwpsn  file "D:/work/DSP/Steering_Engine/F2833x/v141/DSP2833x_common/source/DSP2833x_DefaultIsr.c",l
     734 00000081 6F00          B         $C$L13,UNC            ; [CPU_] |164| 
     735                      ; branch occurs ; [] |164| 
     736                      .dwattr $C$DW$13, DW_AT_TI_end_file("D:/work/DSP/Steering_Engine/F2833x/v141/DSP2833x_common/source/D
     737                      .dwattr $C$DW$13, DW_AT_TI_end_line(0xa5)
     738                      .dwattr $C$DW$13, DW_AT_TI_end_column(0x01)
     739                      .dwendentry
     740                      .dwendtag $C$DW$13
     741              
     742 00000082               .sect   ".text:retain"
     743                      .retain
     744                      .retainrefs
TMS320C2000 Assembler PC v15.12.1 Sat Jun 25 21:32:07 2016

Tools Copyright (c) 1996-2015 Texas Instruments Incorporated
C:\Users\RJKJ_ZGH\AppData\Local\Temp\0832410                         PAGE   15

     745                      .global _USER7_ISR
     746              
     747              $C$DW$14        .dwtag  DW_TAG_subprogram
     748                      .dwattr $C$DW$14, DW_AT_name("USER7_ISR")
     749                      .dwattr $C$DW$14, DW_AT_low_pc(_USER7_ISR)
     750                      .dwattr $C$DW$14, DW_AT_high_pc(0x00)
     751                      .dwattr $C$DW$14, DW_AT_TI_symbol_name("_USER7_ISR")
     752                      .dwattr $C$DW$14, DW_AT_external
     753                      .dwattr $C$DW$14, DW_AT_TI_begin_file("D:/work/DSP/Steering_Engine/F2833x/v141/DSP2833x_common/source
     754                      .dwattr $C$DW$14, DW_AT_TI_begin_line(0xa7)
     755                      .dwattr $C$DW$14, DW_AT_TI_begin_column(0x10)
     756                      .dwattr $C$DW$14, DW_AT_TI_interrupt
     757                      .dwattr $C$DW$14, DW_AT_TI_max_frame_size(-6)
     758                      .dwpsn  file "D:/work/DSP/Steering_Engine/F2833x/v141/DSP2833x_common/source/DSP2833x_DefaultIsr.c",l
     759              
     760                      .dwfde $C$DW$CIE, _USER7_ISR
     761              
     762              ;***************************************************************
     763              ;* FNAME: _USER7_ISR                    FR SIZE:   4           *
     764              ;*                                                             *
     765              ;* FUNCTION ENVIRONMENT                                        *
     766              ;*                                                             *
     767              ;* FUNCTION PROPERTIES                                         *
     768              ;*                            0 Parameter,  0 Auto,  4 SOE     *
     769              ;***************************************************************
     770              
     771 00000082       _USER7_ISR:
     772                      .dwcfi  cfa_offset, -2
     773                      .dwcfi  save_reg_to_mem, 26, 0
     774 00000082 761B          ASP       ; [CPU_] 
     775 00000083 FFF0          PUSH      RB                    ; [CPU_] 
     776                      .dwcfi  save_reg_to_mem, 73, 2
     777                      .dwcfi  save_reg_to_mem, 74, 3
     778                      .dwcfi  cfa_offset, -4
     779 00000084 E200          MOV32     *SP++,STF             ; [CPU_] 
         00000085 00BD 
     780                      .dwcfi  save_reg_to_mem, 39, 4
     781                      .dwcfi  save_reg_to_mem, 40, 5
     782                      .dwcfi  cfa_offset, -6
     783 00000086 E630          SETFLG    RNDF32=1, RNDF64=1    ; [CPU_] 
         00000087 0600 
     784 00000088 2942          CLRC      PAGE0,OVM             ; [CPU_] 
     785 00000089 5616          CLRC      AMODE                 ; [CPU_] 
     786                      .dwpsn  file "D:/work/DSP/Steering_Engine/F2833x/v141/DSP2833x_common/source/DSP2833x_DefaultIsr.c",l
     787 0000008a 7625        ESTOP0
     788 0000008b       $C$L14:    
     789                      .dwpsn  file "D:/work/DSP/Steering_Engine/F2833x/v141/DSP2833x_common/source/DSP2833x_DefaultIsr.c",l
     790 0000008b 6F00          B         $C$L14,UNC            ; [CPU_] |174| 
     791                      ; branch occurs ; [] |174| 
     792                      .dwattr $C$DW$14, DW_AT_TI_end_file("D:/work/DSP/Steering_Engine/F2833x/v141/DSP2833x_common/source/D
     793                      .dwattr $C$DW$14, DW_AT_TI_end_line(0xaf)
     794                      .dwattr $C$DW$14, DW_AT_TI_end_column(0x01)
     795                      .dwendentry
     796                      .dwendtag $C$DW$14
     797              
TMS320C2000 Assembler PC v15.12.1 Sat Jun 25 21:32:07 2016

Tools Copyright (c) 1996-2015 Texas Instruments Incorporated
C:\Users\RJKJ_ZGH\AppData\Local\Temp\0832410                         PAGE   16

     798 0000008c               .sect   ".text:retain"
     799                      .retain
     800                      .retainrefs
     801                      .global _USER8_ISR
     802              
     803              $C$DW$15        .dwtag  DW_TAG_subprogram
     804                      .dwattr $C$DW$15, DW_AT_name("USER8_ISR")
     805                      .dwattr $C$DW$15, DW_AT_low_pc(_USER8_ISR)
     806                      .dwattr $C$DW$15, DW_AT_high_pc(0x00)
     807                      .dwattr $C$DW$15, DW_AT_TI_symbol_name("_USER8_ISR")
     808                      .dwattr $C$DW$15, DW_AT_external
     809                      .dwattr $C$DW$15, DW_AT_TI_begin_file("D:/work/DSP/Steering_Engine/F2833x/v141/DSP2833x_common/source
     810                      .dwattr $C$DW$15, DW_AT_TI_begin_line(0xb1)
     811                      .dwattr $C$DW$15, DW_AT_TI_begin_column(0x10)
     812                      .dwattr $C$DW$15, DW_AT_TI_interrupt
     813                      .dwattr $C$DW$15, DW_AT_TI_max_frame_size(-6)
     814                      .dwpsn  file "D:/work/DSP/Steering_Engine/F2833x/v141/DSP2833x_common/source/DSP2833x_DefaultIsr.c",l
     815              
     816                      .dwfde $C$DW$CIE, _USER8_ISR
     817              
     818              ;***************************************************************
     819              ;* FNAME: _USER8_ISR                    FR SIZE:   4           *
     820              ;*                                                             *
     821              ;* FUNCTION ENVIRONMENT                                        *
     822              ;*                                                             *
     823              ;* FUNCTION PROPERTIES                                         *
     824              ;*                            0 Parameter,  0 Auto,  4 SOE     *
     825              ;***************************************************************
     826              
     827 0000008c       _USER8_ISR:
     828                      .dwcfi  cfa_offset, -2
     829                      .dwcfi  save_reg_to_mem, 26, 0
     830 0000008c 761B          ASP       ; [CPU_] 
     831 0000008d FFF0          PUSH      RB                    ; [CPU_] 
     832                      .dwcfi  save_reg_to_mem, 73, 2
     833                      .dwcfi  save_reg_to_mem, 74, 3
     834                      .dwcfi  cfa_offset, -4
     835 0000008e E200          MOV32     *SP++,STF             ; [CPU_] 
         0000008f 00BD 
     836                      .dwcfi  save_reg_to_mem, 39, 4
     837                      .dwcfi  save_reg_to_mem, 40, 5
     838                      .dwcfi  cfa_offset, -6
     839 00000090 E630          SETFLG    RNDF32=1, RNDF64=1    ; [CPU_] 
         00000091 0600 
     840 00000092 2942          CLRC      PAGE0,OVM             ; [CPU_] 
     841 00000093 5616          CLRC      AMODE                 ; [CPU_] 
     842                      .dwpsn  file "D:/work/DSP/Steering_Engine/F2833x/v141/DSP2833x_common/source/DSP2833x_DefaultIsr.c",l
     843 00000094 7625        ESTOP0
     844 00000095       $C$L15:    
     845                      .dwpsn  file "D:/work/DSP/Steering_Engine/F2833x/v141/DSP2833x_common/source/DSP2833x_DefaultIsr.c",l
     846 00000095 6F00          B         $C$L15,UNC            ; [CPU_] |184| 
     847                      ; branch occurs ; [] |184| 
     848                      .dwattr $C$DW$15, DW_AT_TI_end_file("D:/work/DSP/Steering_Engine/F2833x/v141/DSP2833x_common/source/D
     849                      .dwattr $C$DW$15, DW_AT_TI_end_line(0xb9)
     850                      .dwattr $C$DW$15, DW_AT_TI_end_column(0x01)
TMS320C2000 Assembler PC v15.12.1 Sat Jun 25 21:32:07 2016

Tools Copyright (c) 1996-2015 Texas Instruments Incorporated
C:\Users\RJKJ_ZGH\AppData\Local\Temp\0832410                         PAGE   17

     851                      .dwendentry
     852                      .dwendtag $C$DW$15
     853              
     854 00000096               .sect   ".text:retain"
     855                      .retain
     856                      .retainrefs
     857                      .global _USER9_ISR
     858              
     859              $C$DW$16        .dwtag  DW_TAG_subprogram
     860                      .dwattr $C$DW$16, DW_AT_name("USER9_ISR")
     861                      .dwattr $C$DW$16, DW_AT_low_pc(_USER9_ISR)
     862                      .dwattr $C$DW$16, DW_AT_high_pc(0x00)
     863                      .dwattr $C$DW$16, DW_AT_TI_symbol_name("_USER9_ISR")
     864                      .dwattr $C$DW$16, DW_AT_external
     865                      .dwattr $C$DW$16, DW_AT_TI_begin_file("D:/work/DSP/Steering_Engine/F2833x/v141/DSP2833x_common/source
     866                      .dwattr $C$DW$16, DW_AT_TI_begin_line(0xbb)
     867                      .dwattr $C$DW$16, DW_AT_TI_begin_column(0x10)
     868                      .dwattr $C$DW$16, DW_AT_TI_interrupt
     869                      .dwattr $C$DW$16, DW_AT_TI_max_frame_size(-6)
     870                      .dwpsn  file "D:/work/DSP/Steering_Engine/F2833x/v141/DSP2833x_common/source/DSP2833x_DefaultIsr.c",l
     871              
     872                      .dwfde $C$DW$CIE, _USER9_ISR
     873              
     874              ;***************************************************************
     875              ;* FNAME: _USER9_ISR                    FR SIZE:   4           *
     876              ;*                                                             *
     877              ;* FUNCTION ENVIRONMENT                                        *
     878              ;*                                                             *
     879              ;* FUNCTION PROPERTIES                                         *
     880              ;*                            0 Parameter,  0 Auto,  4 SOE     *
     881              ;***************************************************************
     882              
     883 00000096       _USER9_ISR:
     884                      .dwcfi  cfa_offset, -2
     885                      .dwcfi  save_reg_to_mem, 26, 0
     886 00000096 761B          ASP       ; [CPU_] 
     887 00000097 FFF0          PUSH      RB                    ; [CPU_] 
     888                      .dwcfi  save_reg_to_mem, 73, 2
     889                      .dwcfi  save_reg_to_mem, 74, 3
     890                      .dwcfi  cfa_offset, -4
     891 00000098 E200          MOV32     *SP++,STF             ; [CPU_] 
         00000099 00BD 
     892                      .dwcfi  save_reg_to_mem, 39, 4
     893                      .dwcfi  save_reg_to_mem, 40, 5
     894                      .dwcfi  cfa_offset, -6
     895 0000009a E630          SETFLG    RNDF32=1, RNDF64=1    ; [CPU_] 
         0000009b 0600 
     896 0000009c 2942          CLRC      PAGE0,OVM             ; [CPU_] 
     897 0000009d 5616          CLRC      AMODE                 ; [CPU_] 
     898                      .dwpsn  file "D:/work/DSP/Steering_Engine/F2833x/v141/DSP2833x_common/source/DSP2833x_DefaultIsr.c",l
     899 0000009e 7625        ESTOP0
     900 0000009f       $C$L16:    
     901                      .dwpsn  file "D:/work/DSP/Steering_Engine/F2833x/v141/DSP2833x_common/source/DSP2833x_DefaultIsr.c",l
     902 0000009f 6F00          B         $C$L16,UNC            ; [CPU_] |194| 
     903                      ; branch occurs ; [] |194| 
TMS320C2000 Assembler PC v15.12.1 Sat Jun 25 21:32:07 2016

Tools Copyright (c) 1996-2015 Texas Instruments Incorporated
C:\Users\RJKJ_ZGH\AppData\Local\Temp\0832410                         PAGE   18

     904                      .dwattr $C$DW$16, DW_AT_TI_end_file("D:/work/DSP/Steering_Engine/F2833x/v141/DSP2833x_common/source/D
     905                      .dwattr $C$DW$16, DW_AT_TI_end_line(0xc3)
     906                      .dwattr $C$DW$16, DW_AT_TI_end_column(0x01)
     907                      .dwendentry
     908                      .dwendtag $C$DW$16
     909              
     910 000000a0               .sect   ".text:retain"
     911                      .retain
     912                      .retainrefs
     913                      .global _USER10_ISR
     914              
     915              $C$DW$17        .dwtag  DW_TAG_subprogram
     916                      .dwattr $C$DW$17, DW_AT_name("USER10_ISR")
     917                      .dwattr $C$DW$17, DW_AT_low_pc(_USER10_ISR)
     918                      .dwattr $C$DW$17, DW_AT_high_pc(0x00)
     919                      .dwattr $C$DW$17, DW_AT_TI_symbol_name("_USER10_ISR")
     920                      .dwattr $C$DW$17, DW_AT_external
     921                      .dwattr $C$DW$17, DW_AT_TI_begin_file("D:/work/DSP/Steering_Engine/F2833x/v141/DSP2833x_common/source
     922                      .dwattr $C$DW$17, DW_AT_TI_begin_line(0xc5)
     923                      .dwattr $C$DW$17, DW_AT_TI_begin_column(0x10)
     924                      .dwattr $C$DW$17, DW_AT_TI_interrupt
     925                      .dwattr $C$DW$17, DW_AT_TI_max_frame_size(-6)
     926                      .dwpsn  file "D:/work/DSP/Steering_Engine/F2833x/v141/DSP2833x_common/source/DSP2833x_DefaultIsr.c",l
     927              
     928                      .dwfde $C$DW$CIE, _USER10_ISR
     929              
     930              ;***************************************************************
     931              ;* FNAME: _USER10_ISR                   FR SIZE:   4           *
     932              ;*                                                             *
     933              ;* FUNCTION ENVIRONMENT                                        *
     934              ;*                                                             *
     935              ;* FUNCTION PROPERTIES                                         *
     936              ;*                            0 Parameter,  0 Auto,  4 SOE     *
     937              ;***************************************************************
     938              
     939 000000a0       _USER10_ISR:
     940                      .dwcfi  cfa_offset, -2
     941                      .dwcfi  save_reg_to_mem, 26, 0
     942 000000a0 761B          ASP       ; [CPU_] 
     943 000000a1 FFF0          PUSH      RB                    ; [CPU_] 
     944                      .dwcfi  save_reg_to_mem, 73, 2
     945                      .dwcfi  save_reg_to_mem, 74, 3
     946                      .dwcfi  cfa_offset, -4
     947 000000a2 E200          MOV32     *SP++,STF             ; [CPU_] 
         000000a3 00BD 
     948                      .dwcfi  save_reg_to_mem, 39, 4
     949                      .dwcfi  save_reg_to_mem, 40, 5
     950                      .dwcfi  cfa_offset, -6
     951 000000a4 E630          SETFLG    RNDF32=1, RNDF64=1    ; [CPU_] 
         000000a5 0600 
     952 000000a6 2942          CLRC      PAGE0,OVM             ; [CPU_] 
     953 000000a7 5616          CLRC      AMODE                 ; [CPU_] 
     954                      .dwpsn  file "D:/work/DSP/Steering_Engine/F2833x/v141/DSP2833x_common/source/DSP2833x_DefaultIsr.c",l
     955 000000a8 7625        ESTOP0
     956 000000a9       $C$L17:    
TMS320C2000 Assembler PC v15.12.1 Sat Jun 25 21:32:07 2016

Tools Copyright (c) 1996-2015 Texas Instruments Incorporated
C:\Users\RJKJ_ZGH\AppData\Local\Temp\0832410                         PAGE   19

     957                      .dwpsn  file "D:/work/DSP/Steering_Engine/F2833x/v141/DSP2833x_common/source/DSP2833x_DefaultIsr.c",l
     958 000000a9 6F00          B         $C$L17,UNC            ; [CPU_] |204| 
     959                      ; branch occurs ; [] |204| 
     960                      .dwattr $C$DW$17, DW_AT_TI_end_file("D:/work/DSP/Steering_Engine/F2833x/v141/DSP2833x_common/source/D
     961                      .dwattr $C$DW$17, DW_AT_TI_end_line(0xcd)
     962                      .dwattr $C$DW$17, DW_AT_TI_end_column(0x01)
     963                      .dwendentry
     964                      .dwendtag $C$DW$17
     965              
     966 000000aa               .sect   ".text:retain"
     967                      .retain
     968                      .retainrefs
     969                      .global _USER11_ISR
     970              
     971              $C$DW$18        .dwtag  DW_TAG_subprogram
     972                      .dwattr $C$DW$18, DW_AT_name("USER11_ISR")
     973                      .dwattr $C$DW$18, DW_AT_low_pc(_USER11_ISR)
     974                      .dwattr $C$DW$18, DW_AT_high_pc(0x00)
     975                      .dwattr $C$DW$18, DW_AT_TI_symbol_name("_USER11_ISR")
     976                      .dwattr $C$DW$18, DW_AT_external
     977                      .dwattr $C$DW$18, DW_AT_TI_begin_file("D:/work/DSP/Steering_Engine/F2833x/v141/DSP2833x_common/source
     978                      .dwattr $C$DW$18, DW_AT_TI_begin_line(0xcf)
     979                      .dwattr $C$DW$18, DW_AT_TI_begin_column(0x10)
     980                      .dwattr $C$DW$18, DW_AT_TI_interrupt
     981                      .dwattr $C$DW$18, DW_AT_TI_max_frame_size(-6)
     982                      .dwpsn  file "D:/work/DSP/Steering_Engine/F2833x/v141/DSP2833x_common/source/DSP2833x_DefaultIsr.c",l
     983              
     984                      .dwfde $C$DW$CIE, _USER11_ISR
     985              
     986              ;***************************************************************
     987              ;* FNAME: _USER11_ISR                   FR SIZE:   4           *
     988              ;*                                                             *
     989              ;* FUNCTION ENVIRONMENT                                        *
     990              ;*                                                             *
     991              ;* FUNCTION PROPERTIES                                         *
     992              ;*                            0 Parameter,  0 Auto,  4 SOE     *
     993              ;***************************************************************
     994              
     995 000000aa       _USER11_ISR:
     996                      .dwcfi  cfa_offset, -2
     997                      .dwcfi  save_reg_to_mem, 26, 0
     998 000000aa 761B          ASP       ; [CPU_] 
     999 000000ab FFF0          PUSH      RB                    ; [CPU_] 
    1000                      .dwcfi  save_reg_to_mem, 73, 2
    1001                      .dwcfi  save_reg_to_mem, 74, 3
    1002                      .dwcfi  cfa_offset, -4
    1003 000000ac E200          MOV32     *SP++,STF             ; [CPU_] 
         000000ad 00BD 
    1004                      .dwcfi  save_reg_to_mem, 39, 4
    1005                      .dwcfi  save_reg_to_mem, 40, 5
    1006                      .dwcfi  cfa_offset, -6
    1007 000000ae E630          SETFLG    RNDF32=1, RNDF64=1    ; [CPU_] 
         000000af 0600 
    1008 000000b0 2942          CLRC      PAGE0,OVM             ; [CPU_] 
    1009 000000b1 5616          CLRC      AMODE                 ; [CPU_] 
TMS320C2000 Assembler PC v15.12.1 Sat Jun 25 21:32:07 2016

Tools Copyright (c) 1996-2015 Texas Instruments Incorporated
C:\Users\RJKJ_ZGH\AppData\Local\Temp\0832410                         PAGE   20

    1010                      .dwpsn  file "D:/work/DSP/Steering_Engine/F2833x/v141/DSP2833x_common/source/DSP2833x_DefaultIsr.c",l
    1011 000000b2 7625        ESTOP0
    1012 000000b3       $C$L18:    
    1013                      .dwpsn  file "D:/work/DSP/Steering_Engine/F2833x/v141/DSP2833x_common/source/DSP2833x_DefaultIsr.c",l
    1014 000000b3 6F00          B         $C$L18,UNC            ; [CPU_] |214| 
    1015                      ; branch occurs ; [] |214| 
    1016                      .dwattr $C$DW$18, DW_AT_TI_end_file("D:/work/DSP/Steering_Engine/F2833x/v141/DSP2833x_common/source/D
    1017                      .dwattr $C$DW$18, DW_AT_TI_end_line(0xd7)
    1018                      .dwattr $C$DW$18, DW_AT_TI_end_column(0x01)
    1019                      .dwendentry
    1020                      .dwendtag $C$DW$18
    1021              
    1022 000000b4               .sect   ".text:retain"
    1023                      .retain
    1024                      .retainrefs
    1025                      .global _USER12_ISR
    1026              
    1027              $C$DW$19        .dwtag  DW_TAG_subprogram
    1028                      .dwattr $C$DW$19, DW_AT_name("USER12_ISR")
    1029                      .dwattr $C$DW$19, DW_AT_low_pc(_USER12_ISR)
    1030                      .dwattr $C$DW$19, DW_AT_high_pc(0x00)
    1031                      .dwattr $C$DW$19, DW_AT_TI_symbol_name("_USER12_ISR")
    1032                      .dwattr $C$DW$19, DW_AT_external
    1033                      .dwattr $C$DW$19, DW_AT_TI_begin_file("D:/work/DSP/Steering_Engine/F2833x/v141/DSP2833x_common/source
    1034                      .dwattr $C$DW$19, DW_AT_TI_begin_line(0xd9)
    1035                      .dwattr $C$DW$19, DW_AT_TI_begin_column(0x10)
    1036                      .dwattr $C$DW$19, DW_AT_TI_interrupt
    1037                      .dwattr $C$DW$19, DW_AT_TI_max_frame_size(-6)
    1038                      .dwpsn  file "D:/work/DSP/Steering_Engine/F2833x/v141/DSP2833x_common/source/DSP2833x_DefaultIsr.c",l
    1039              
    1040                      .dwfde $C$DW$CIE, _USER12_ISR
    1041              
    1042              ;***************************************************************
    1043              ;* FNAME: _USER12_ISR                   FR SIZE:   4           *
    1044              ;*                                                             *
    1045              ;* FUNCTION ENVIRONMENT                                        *
    1046              ;*                                                             *
    1047              ;* FUNCTION PROPERTIES                                         *
    1048              ;*                            0 Parameter,  0 Auto,  4 SOE     *
    1049              ;***************************************************************
    1050              
    1051 000000b4       _USER12_ISR:
    1052                      .dwcfi  cfa_offset, -2
    1053                      .dwcfi  save_reg_to_mem, 26, 0
    1054 000000b4 761B          ASP       ; [CPU_] 
    1055 000000b5 FFF0          PUSH      RB                    ; [CPU_] 
    1056                      .dwcfi  save_reg_to_mem, 73, 2
    1057                      .dwcfi  save_reg_to_mem, 74, 3
    1058                      .dwcfi  cfa_offset, -4
    1059 000000b6 E200          MOV32     *SP++,STF             ; [CPU_] 
         000000b7 00BD 
    1060                      .dwcfi  save_reg_to_mem, 39, 4
    1061                      .dwcfi  save_reg_to_mem, 40, 5
    1062                      .dwcfi  cfa_offset, -6
    1063 000000b8 E630          SETFLG    RNDF32=1, RNDF64=1    ; [CPU_] 
TMS320C2000 Assembler PC v15.12.1 Sat Jun 25 21:32:07 2016

Tools Copyright (c) 1996-2015 Texas Instruments Incorporated
C:\Users\RJKJ_ZGH\AppData\Local\Temp\0832410                         PAGE   21

         000000b9 0600 
    1064 000000ba 2942          CLRC      PAGE0,OVM             ; [CPU_] 
    1065 000000bb 5616          CLRC      AMODE                 ; [CPU_] 
    1066                      .dwpsn  file "D:/work/DSP/Steering_Engine/F2833x/v141/DSP2833x_common/source/DSP2833x_DefaultIsr.c",l
    1067 000000bc 7625        ESTOP0
    1068 000000bd       $C$L19:    
    1069                      .dwpsn  file "D:/work/DSP/Steering_Engine/F2833x/v141/DSP2833x_common/source/DSP2833x_DefaultIsr.c",l
    1070 000000bd 6F00          B         $C$L19,UNC            ; [CPU_] |224| 
    1071                      ; branch occurs ; [] |224| 
    1072                      .dwattr $C$DW$19, DW_AT_TI_end_file("D:/work/DSP/Steering_Engine/F2833x/v141/DSP2833x_common/source/D
    1073                      .dwattr $C$DW$19, DW_AT_TI_end_line(0xe2)
    1074                      .dwattr $C$DW$19, DW_AT_TI_end_column(0x01)
    1075                      .dwendentry
    1076                      .dwendtag $C$DW$19
    1077              
    1078 000000be               .sect   ".text:retain"
    1079                      .retain
    1080                      .retainrefs
    1081                      .global _SEQ1INT_ISR
    1082              
    1083              $C$DW$20        .dwtag  DW_TAG_subprogram
    1084                      .dwattr $C$DW$20, DW_AT_name("SEQ1INT_ISR")
    1085                      .dwattr $C$DW$20, DW_AT_low_pc(_SEQ1INT_ISR)
    1086                      .dwattr $C$DW$20, DW_AT_high_pc(0x00)
    1087                      .dwattr $C$DW$20, DW_AT_TI_symbol_name("_SEQ1INT_ISR")
    1088                      .dwattr $C$DW$20, DW_AT_external
    1089                      .dwattr $C$DW$20, DW_AT_TI_begin_file("D:/work/DSP/Steering_Engine/F2833x/v141/DSP2833x_common/source
    1090                      .dwattr $C$DW$20, DW_AT_TI_begin_line(0xe9)
    1091                      .dwattr $C$DW$20, DW_AT_TI_begin_column(0x10)
    1092                      .dwattr $C$DW$20, DW_AT_TI_interrupt
    1093                      .dwattr $C$DW$20, DW_AT_TI_max_frame_size(-6)
    1094                      .dwpsn  file "D:/work/DSP/Steering_Engine/F2833x/v141/DSP2833x_common/source/DSP2833x_DefaultIsr.c",l
    1095              
    1096                      .dwfde $C$DW$CIE, _SEQ1INT_ISR
    1097              
    1098              ;***************************************************************
    1099              ;* FNAME: _SEQ1INT_ISR                  FR SIZE:   4           *
    1100              ;*                                                             *
    1101              ;* FUNCTION ENVIRONMENT                                        *
    1102              ;*                                                             *
    1103              ;* FUNCTION PROPERTIES                                         *
    1104              ;*                            0 Parameter,  0 Auto,  4 SOE     *
    1105              ;***************************************************************
    1106              
    1107 000000be       _SEQ1INT_ISR:
    1108                      .dwcfi  cfa_offset, -2
    1109                      .dwcfi  save_reg_to_mem, 26, 0
    1110 000000be 761B          ASP       ; [CPU_] 
    1111 000000bf FFF0          PUSH      RB                    ; [CPU_] 
    1112                      .dwcfi  save_reg_to_mem, 73, 2
    1113                      .dwcfi  save_reg_to_mem, 74, 3
    1114                      .dwcfi  cfa_offset, -4
    1115 000000c0 E200          MOV32     *SP++,STF             ; [CPU_] 
         000000c1 00BD 
    1116                      .dwcfi  save_reg_to_mem, 39, 4
TMS320C2000 Assembler PC v15.12.1 Sat Jun 25 21:32:07 2016

Tools Copyright (c) 1996-2015 Texas Instruments Incorporated
C:\Users\RJKJ_ZGH\AppData\Local\Temp\0832410                         PAGE   22

    1117                      .dwcfi  save_reg_to_mem, 40, 5
    1118                      .dwcfi  cfa_offset, -6
    1119 000000c2 E630          SETFLG    RNDF32=1, RNDF64=1    ; [CPU_] 
         000000c3 0600 
    1120 000000c4 2942          CLRC      PAGE0,OVM             ; [CPU_] 
    1121 000000c5 5616          CLRC      AMODE                 ; [CPU_] 
    1122                      .dwpsn  file "D:/work/DSP/Steering_Engine/F2833x/v141/DSP2833x_common/source/DSP2833x_DefaultIsr.c",l
    1123 000000c6 7625        ESTOP0
    1124 000000c7       $C$L20:    
    1125                      .dwpsn  file "D:/work/DSP/Steering_Engine/F2833x/v141/DSP2833x_common/source/DSP2833x_DefaultIsr.c",l
    1126 000000c7 6F00          B         $C$L20,UNC            ; [CPU_] |244| 
    1127                      ; branch occurs ; [] |244| 
    1128                      .dwattr $C$DW$20, DW_AT_TI_end_file("D:/work/DSP/Steering_Engine/F2833x/v141/DSP2833x_common/source/D
    1129                      .dwattr $C$DW$20, DW_AT_TI_end_line(0xf6)
    1130                      .dwattr $C$DW$20, DW_AT_TI_end_column(0x01)
    1131                      .dwendentry
    1132                      .dwendtag $C$DW$20
    1133              
    1134 000000c8               .sect   ".text:retain"
    1135                      .retain
    1136                      .retainrefs
    1137                      .global _SEQ2INT_ISR
    1138              
    1139              $C$DW$21        .dwtag  DW_TAG_subprogram
    1140                      .dwattr $C$DW$21, DW_AT_name("SEQ2INT_ISR")
    1141                      .dwattr $C$DW$21, DW_AT_low_pc(_SEQ2INT_ISR)
    1142                      .dwattr $C$DW$21, DW_AT_high_pc(0x00)
    1143                      .dwattr $C$DW$21, DW_AT_TI_symbol_name("_SEQ2INT_ISR")
    1144                      .dwattr $C$DW$21, DW_AT_external
    1145                      .dwattr $C$DW$21, DW_AT_TI_begin_file("D:/work/DSP/Steering_Engine/F2833x/v141/DSP2833x_common/source
    1146                      .dwattr $C$DW$21, DW_AT_TI_begin_line(0xf9)
    1147                      .dwattr $C$DW$21, DW_AT_TI_begin_column(0x10)
    1148                      .dwattr $C$DW$21, DW_AT_TI_interrupt
    1149                      .dwattr $C$DW$21, DW_AT_TI_max_frame_size(-6)
    1150                      .dwpsn  file "D:/work/DSP/Steering_Engine/F2833x/v141/DSP2833x_common/source/DSP2833x_DefaultIsr.c",l
    1151              
    1152                      .dwfde $C$DW$CIE, _SEQ2INT_ISR
    1153              
    1154              ;***************************************************************
    1155              ;* FNAME: _SEQ2INT_ISR                  FR SIZE:   4           *
    1156              ;*                                                             *
    1157              ;* FUNCTION ENVIRONMENT                                        *
    1158              ;*                                                             *
    1159              ;* FUNCTION PROPERTIES                                         *
    1160              ;*                            0 Parameter,  0 Auto,  4 SOE     *
    1161              ;***************************************************************
    1162              
    1163 000000c8       _SEQ2INT_ISR:
    1164                      .dwcfi  cfa_offset, -2
    1165                      .dwcfi  save_reg_to_mem, 26, 0
    1166 000000c8 761B          ASP       ; [CPU_] 
    1167 000000c9 FFF0          PUSH      RB                    ; [CPU_] 
    1168                      .dwcfi  save_reg_to_mem, 73, 2
    1169                      .dwcfi  save_reg_to_mem, 74, 3
    1170                      .dwcfi  cfa_offset, -4
TMS320C2000 Assembler PC v15.12.1 Sat Jun 25 21:32:07 2016

Tools Copyright (c) 1996-2015 Texas Instruments Incorporated
C:\Users\RJKJ_ZGH\AppData\Local\Temp\0832410                         PAGE   23

    1171 000000ca E200          MOV32     *SP++,STF             ; [CPU_] 
         000000cb 00BD 
    1172                      .dwcfi  save_reg_to_mem, 39, 4
    1173                      .dwcfi  save_reg_to_mem, 40, 5
    1174                      .dwcfi  cfa_offset, -6
    1175 000000cc E630          SETFLG    RNDF32=1, RNDF64=1    ; [CPU_] 
         000000cd 0600 
    1176 000000ce 2942          CLRC      PAGE0,OVM             ; [CPU_] 
    1177 000000cf 5616          CLRC      AMODE                 ; [CPU_] 
    1178                      .dwpsn  file "D:/work/DSP/Steering_Engine/F2833x/v141/DSP2833x_common/source/DSP2833x_DefaultIsr.c",l
    1179 000000d0 7625            ESTOP0
    1180 000000d1       $C$L21:    
    1181                      .dwpsn  file "D:/work/DSP/Steering_Engine/F2833x/v141/DSP2833x_common/source/DSP2833x_DefaultIsr.c",l
    1182 000000d1 6F00          B         $C$L21,UNC            ; [CPU_] |261| 
    1183                      ; branch occurs ; [] |261| 
    1184                      .dwattr $C$DW$21, DW_AT_TI_end_file("D:/work/DSP/Steering_Engine/F2833x/v141/DSP2833x_common/source/D
    1185                      .dwattr $C$DW$21, DW_AT_TI_end_line(0x107)
    1186                      .dwattr $C$DW$21, DW_AT_TI_end_column(0x01)
    1187                      .dwendentry
    1188                      .dwendtag $C$DW$21
    1189              
    1190 000000d2               .sect   ".text:retain"
    1191                      .retain
    1192                      .retainrefs
    1193                      .global _XINT1_ISR
    1194              
    1195              $C$DW$22        .dwtag  DW_TAG_subprogram
    1196                      .dwattr $C$DW$22, DW_AT_name("XINT1_ISR")
    1197                      .dwattr $C$DW$22, DW_AT_low_pc(_XINT1_ISR)
    1198                      .dwattr $C$DW$22, DW_AT_high_pc(0x00)
    1199                      .dwattr $C$DW$22, DW_AT_TI_symbol_name("_XINT1_ISR")
    1200                      .dwattr $C$DW$22, DW_AT_external
    1201                      .dwattr $C$DW$22, DW_AT_TI_begin_file("D:/work/DSP/Steering_Engine/F2833x/v141/DSP2833x_common/source
    1202                      .dwattr $C$DW$22, DW_AT_TI_begin_line(0x10b)
    1203                      .dwattr $C$DW$22, DW_AT_TI_begin_column(0x11)
    1204                      .dwattr $C$DW$22, DW_AT_TI_interrupt
    1205                      .dwattr $C$DW$22, DW_AT_TI_max_frame_size(-6)
    1206                      .dwpsn  file "D:/work/DSP/Steering_Engine/F2833x/v141/DSP2833x_common/source/DSP2833x_DefaultIsr.c",l
    1207              
    1208                      .dwfde $C$DW$CIE, _XINT1_ISR
    1209              
    1210              ;***************************************************************
    1211              ;* FNAME: _XINT1_ISR                    FR SIZE:   4           *
    1212              ;*                                                             *
    1213              ;* FUNCTION ENVIRONMENT                                        *
    1214              ;*                                                             *
    1215              ;* FUNCTION PROPERTIES                                         *
    1216              ;*                            0 Parameter,  0 Auto,  4 SOE     *
    1217              ;***************************************************************
    1218              
    1219 000000d2       _XINT1_ISR:
    1220                      .dwcfi  cfa_offset, -2
    1221                      .dwcfi  save_reg_to_mem, 26, 0
    1222 000000d2 761B          ASP       ; [CPU_] 
    1223 000000d3 FFF0          PUSH      RB                    ; [CPU_] 
TMS320C2000 Assembler PC v15.12.1 Sat Jun 25 21:32:07 2016

Tools Copyright (c) 1996-2015 Texas Instruments Incorporated
C:\Users\RJKJ_ZGH\AppData\Local\Temp\0832410                         PAGE   24

    1224                      .dwcfi  save_reg_to_mem, 73, 2
    1225                      .dwcfi  save_reg_to_mem, 74, 3
    1226                      .dwcfi  cfa_offset, -4
    1227 000000d4 E200          MOV32     *SP++,STF             ; [CPU_] 
         000000d5 00BD 
    1228                      .dwcfi  save_reg_to_mem, 39, 4
    1229                      .dwcfi  save_reg_to_mem, 40, 5
    1230                      .dwcfi  cfa_offset, -6
    1231 000000d6 E630          SETFLG    RNDF32=1, RNDF64=1    ; [CPU_] 
         000000d7 0600 
    1232 000000d8 2942          CLRC      PAGE0,OVM             ; [CPU_] 
    1233 000000d9 5616          CLRC      AMODE                 ; [CPU_] 
    1234                      .dwpsn  file "D:/work/DSP/Steering_Engine/F2833x/v141/DSP2833x_common/source/DSP2833x_DefaultIsr.c",l
    1235 000000da 7625        ESTOP0
    1236 000000db       $C$L22:    
    1237                      .dwpsn  file "D:/work/DSP/Steering_Engine/F2833x/v141/DSP2833x_common/source/DSP2833x_DefaultIsr.c",l
    1238 000000db 6F00          B         $C$L22,UNC            ; [CPU_] |277| 
    1239                      ; branch occurs ; [] |277| 
    1240                      .dwattr $C$DW$22, DW_AT_TI_end_file("D:/work/DSP/Steering_Engine/F2833x/v141/DSP2833x_common/source/D
    1241                      .dwattr $C$DW$22, DW_AT_TI_end_line(0x117)
    1242                      .dwattr $C$DW$22, DW_AT_TI_end_column(0x01)
    1243                      .dwendentry
    1244                      .dwendtag $C$DW$22
    1245              
    1246 000000dc               .sect   ".text:retain"
    1247                      .retain
    1248                      .retainrefs
    1249                      .global _XINT2_ISR
    1250              
    1251              $C$DW$23        .dwtag  DW_TAG_subprogram
    1252                      .dwattr $C$DW$23, DW_AT_name("XINT2_ISR")
    1253                      .dwattr $C$DW$23, DW_AT_low_pc(_XINT2_ISR)
    1254                      .dwattr $C$DW$23, DW_AT_high_pc(0x00)
    1255                      .dwattr $C$DW$23, DW_AT_TI_symbol_name("_XINT2_ISR")
    1256                      .dwattr $C$DW$23, DW_AT_external
    1257                      .dwattr $C$DW$23, DW_AT_TI_begin_file("D:/work/DSP/Steering_Engine/F2833x/v141/DSP2833x_common/source
    1258                      .dwattr $C$DW$23, DW_AT_TI_begin_line(0x11a)
    1259                      .dwattr $C$DW$23, DW_AT_TI_begin_column(0x11)
    1260                      .dwattr $C$DW$23, DW_AT_TI_interrupt
    1261                      .dwattr $C$DW$23, DW_AT_TI_max_frame_size(-6)
    1262                      .dwpsn  file "D:/work/DSP/Steering_Engine/F2833x/v141/DSP2833x_common/source/DSP2833x_DefaultIsr.c",l
    1263              
    1264                      .dwfde $C$DW$CIE, _XINT2_ISR
    1265              
    1266              ;***************************************************************
    1267              ;* FNAME: _XINT2_ISR                    FR SIZE:   4           *
    1268              ;*                                                             *
    1269              ;* FUNCTION ENVIRONMENT                                        *
    1270              ;*                                                             *
    1271              ;* FUNCTION PROPERTIES                                         *
    1272              ;*                            0 Parameter,  0 Auto,  4 SOE     *
    1273              ;***************************************************************
    1274              
    1275 000000dc       _XINT2_ISR:
    1276                      .dwcfi  cfa_offset, -2
TMS320C2000 Assembler PC v15.12.1 Sat Jun 25 21:32:07 2016

Tools Copyright (c) 1996-2015 Texas Instruments Incorporated
C:\Users\RJKJ_ZGH\AppData\Local\Temp\0832410                         PAGE   25

    1277                      .dwcfi  save_reg_to_mem, 26, 0
    1278 000000dc 761B          ASP       ; [CPU_] 
    1279 000000dd FFF0          PUSH      RB                    ; [CPU_] 
    1280                      .dwcfi  save_reg_to_mem, 73, 2
    1281                      .dwcfi  save_reg_to_mem, 74, 3
    1282                      .dwcfi  cfa_offset, -4
    1283 000000de E200          MOV32     *SP++,STF             ; [CPU_] 
         000000df 00BD 
    1284                      .dwcfi  save_reg_to_mem, 39, 4
    1285                      .dwcfi  save_reg_to_mem, 40, 5
    1286                      .dwcfi  cfa_offset, -6
    1287 000000e0 E630          SETFLG    RNDF32=1, RNDF64=1    ; [CPU_] 
         000000e1 0600 
    1288 000000e2 2942          CLRC      PAGE0,OVM             ; [CPU_] 
    1289 000000e3 5616          CLRC      AMODE                 ; [CPU_] 
    1290                      .dwpsn  file "D:/work/DSP/Steering_Engine/F2833x/v141/DSP2833x_common/source/DSP2833x_DefaultIsr.c",l
    1291 000000e4 7625        ESTOP0
    1292 000000e5       $C$L23:    
    1293                      .dwpsn  file "D:/work/DSP/Steering_Engine/F2833x/v141/DSP2833x_common/source/DSP2833x_DefaultIsr.c",l
    1294 000000e5 6F00          B         $C$L23,UNC            ; [CPU_] |292| 
    1295                      ; branch occurs ; [] |292| 
    1296                      .dwattr $C$DW$23, DW_AT_TI_end_file("D:/work/DSP/Steering_Engine/F2833x/v141/DSP2833x_common/source/D
    1297                      .dwattr $C$DW$23, DW_AT_TI_end_line(0x126)
    1298                      .dwattr $C$DW$23, DW_AT_TI_end_column(0x01)
    1299                      .dwendentry
    1300                      .dwendtag $C$DW$23
    1301              
    1302 000000e6               .sect   ".text:retain"
    1303                      .retain
    1304                      .retainrefs
    1305                      .global _ADCINT_ISR
    1306              
    1307              $C$DW$24        .dwtag  DW_TAG_subprogram
    1308                      .dwattr $C$DW$24, DW_AT_name("ADCINT_ISR")
    1309                      .dwattr $C$DW$24, DW_AT_low_pc(_ADCINT_ISR)
    1310                      .dwattr $C$DW$24, DW_AT_high_pc(0x00)
    1311                      .dwattr $C$DW$24, DW_AT_TI_symbol_name("_ADCINT_ISR")
    1312                      .dwattr $C$DW$24, DW_AT_external
    1313                      .dwattr $C$DW$24, DW_AT_TI_begin_file("D:/work/DSP/Steering_Engine/F2833x/v141/DSP2833x_common/source
    1314                      .dwattr $C$DW$24, DW_AT_TI_begin_line(0x129)
    1315                      .dwattr $C$DW$24, DW_AT_TI_begin_column(0x11)
    1316                      .dwattr $C$DW$24, DW_AT_TI_interrupt
    1317                      .dwattr $C$DW$24, DW_AT_TI_max_frame_size(-6)
    1318                      .dwpsn  file "D:/work/DSP/Steering_Engine/F2833x/v141/DSP2833x_common/source/DSP2833x_DefaultIsr.c",l
    1319              
    1320                      .dwfde $C$DW$CIE, _ADCINT_ISR
    1321              
    1322              ;***************************************************************
    1323              ;* FNAME: _ADCINT_ISR                   FR SIZE:   4           *
    1324              ;*                                                             *
    1325              ;* FUNCTION ENVIRONMENT                                        *
    1326              ;*                                                             *
    1327              ;* FUNCTION PROPERTIES                                         *
    1328              ;*                            0 Parameter,  0 Auto,  4 SOE     *
    1329              ;***************************************************************
TMS320C2000 Assembler PC v15.12.1 Sat Jun 25 21:32:07 2016

Tools Copyright (c) 1996-2015 Texas Instruments Incorporated
C:\Users\RJKJ_ZGH\AppData\Local\Temp\0832410                         PAGE   26

    1330              
    1331 000000e6       _ADCINT_ISR:
    1332                      .dwcfi  cfa_offset, -2
    1333                      .dwcfi  save_reg_to_mem, 26, 0
    1334 000000e6 761B          ASP       ; [CPU_] 
    1335 000000e7 FFF0          PUSH      RB                    ; [CPU_] 
    1336                      .dwcfi  save_reg_to_mem, 73, 2
    1337                      .dwcfi  save_reg_to_mem, 74, 3
    1338                      .dwcfi  cfa_offset, -4
    1339 000000e8 E200          MOV32     *SP++,STF             ; [CPU_] 
         000000e9 00BD 
    1340                      .dwcfi  save_reg_to_mem, 39, 4
    1341                      .dwcfi  save_reg_to_mem, 40, 5
    1342                      .dwcfi  cfa_offset, -6
    1343 000000ea E630          SETFLG    RNDF32=1, RNDF64=1    ; [CPU_] 
         000000eb 0600 
    1344 000000ec 2942          CLRC      PAGE0,OVM             ; [CPU_] 
    1345 000000ed 5616          CLRC      AMODE                 ; [CPU_] 
    1346                      .dwpsn  file "D:/work/DSP/Steering_Engine/F2833x/v141/DSP2833x_common/source/DSP2833x_DefaultIsr.c",l
    1347 000000ee 7625        ESTOP0
    1348 000000ef       $C$L24:    
    1349                      .dwpsn  file "D:/work/DSP/Steering_Engine/F2833x/v141/DSP2833x_common/source/DSP2833x_DefaultIsr.c",l
    1350 000000ef 6F00          B         $C$L24,UNC            ; [CPU_] |307| 
    1351                      ; branch occurs ; [] |307| 
    1352                      .dwattr $C$DW$24, DW_AT_TI_end_file("D:/work/DSP/Steering_Engine/F2833x/v141/DSP2833x_common/source/D
    1353                      .dwattr $C$DW$24, DW_AT_TI_end_line(0x134)
    1354                      .dwattr $C$DW$24, DW_AT_TI_end_column(0x01)
    1355                      .dwendentry
    1356                      .dwendtag $C$DW$24
    1357              
    1358 000000f0               .sect   ".text:retain"
    1359                      .retain
    1360                      .retainrefs
    1361                      .global _TINT0_ISR
    1362              
    1363              $C$DW$25        .dwtag  DW_TAG_subprogram
    1364                      .dwattr $C$DW$25, DW_AT_name("TINT0_ISR")
    1365                      .dwattr $C$DW$25, DW_AT_low_pc(_TINT0_ISR)
    1366                      .dwattr $C$DW$25, DW_AT_high_pc(0x00)
    1367                      .dwattr $C$DW$25, DW_AT_TI_symbol_name("_TINT0_ISR")
    1368                      .dwattr $C$DW$25, DW_AT_external
    1369                      .dwattr $C$DW$25, DW_AT_TI_begin_file("D:/work/DSP/Steering_Engine/F2833x/v141/DSP2833x_common/source
    1370                      .dwattr $C$DW$25, DW_AT_TI_begin_line(0x137)
    1371                      .dwattr $C$DW$25, DW_AT_TI_begin_column(0x11)
    1372                      .dwattr $C$DW$25, DW_AT_TI_interrupt
    1373                      .dwattr $C$DW$25, DW_AT_TI_max_frame_size(-6)
    1374                      .dwpsn  file "D:/work/DSP/Steering_Engine/F2833x/v141/DSP2833x_common/source/DSP2833x_DefaultIsr.c",l
    1375              
    1376                      .dwfde $C$DW$CIE, _TINT0_ISR
    1377              
    1378              ;***************************************************************
    1379              ;* FNAME: _TINT0_ISR                    FR SIZE:   4           *
    1380              ;*                                                             *
    1381              ;* FUNCTION ENVIRONMENT                                        *
    1382              ;*                                                             *
TMS320C2000 Assembler PC v15.12.1 Sat Jun 25 21:32:07 2016

Tools Copyright (c) 1996-2015 Texas Instruments Incorporated
C:\Users\RJKJ_ZGH\AppData\Local\Temp\0832410                         PAGE   27

    1383              ;* FUNCTION PROPERTIES                                         *
    1384              ;*                            0 Parameter,  0 Auto,  4 SOE     *
    1385              ;***************************************************************
    1386              
    1387 000000f0       _TINT0_ISR:
    1388                      .dwcfi  cfa_offset, -2
    1389                      .dwcfi  save_reg_to_mem, 26, 0
    1390 000000f0 761B          ASP       ; [CPU_] 
    1391 000000f1 FFF0          PUSH      RB                    ; [CPU_] 
    1392                      .dwcfi  save_reg_to_mem, 73, 2
    1393                      .dwcfi  save_reg_to_mem, 74, 3
    1394                      .dwcfi  cfa_offset, -4
    1395 000000f2 E200          MOV32     *SP++,STF             ; [CPU_] 
         000000f3 00BD 
    1396                      .dwcfi  save_reg_to_mem, 39, 4
    1397                      .dwcfi  save_reg_to_mem, 40, 5
    1398                      .dwcfi  cfa_offset, -6
    1399 000000f4 E630          SETFLG    RNDF32=1, RNDF64=1    ; [CPU_] 
         000000f5 0600 
    1400 000000f6 2942          CLRC      PAGE0,OVM             ; [CPU_] 
    1401 000000f7 5616          CLRC      AMODE                 ; [CPU_] 
    1402                      .dwpsn  file "D:/work/DSP/Steering_Engine/F2833x/v141/DSP2833x_common/source/DSP2833x_DefaultIsr.c",l
    1403 000000f8 7625        ESTOP0
    1404 000000f9       $C$L25:    
    1405                      .dwpsn  file "D:/work/DSP/Steering_Engine/F2833x/v141/DSP2833x_common/source/DSP2833x_DefaultIsr.c",l
    1406 000000f9 6F00          B         $C$L25,UNC            ; [CPU_] |321| 
    1407                      ; branch occurs ; [] |321| 
    1408                      .dwattr $C$DW$25, DW_AT_TI_end_file("D:/work/DSP/Steering_Engine/F2833x/v141/DSP2833x_common/source/D
    1409                      .dwattr $C$DW$25, DW_AT_TI_end_line(0x142)
    1410                      .dwattr $C$DW$25, DW_AT_TI_end_column(0x01)
    1411                      .dwendentry
    1412                      .dwendtag $C$DW$25
    1413              
    1414 000000fa               .sect   ".text:retain"
    1415                      .retain
    1416                      .retainrefs
    1417                      .global _WAKEINT_ISR
    1418              
    1419              $C$DW$26        .dwtag  DW_TAG_subprogram
    1420                      .dwattr $C$DW$26, DW_AT_name("WAKEINT_ISR")
    1421                      .dwattr $C$DW$26, DW_AT_low_pc(_WAKEINT_ISR)
    1422                      .dwattr $C$DW$26, DW_AT_high_pc(0x00)
    1423                      .dwattr $C$DW$26, DW_AT_TI_symbol_name("_WAKEINT_ISR")
    1424                      .dwattr $C$DW$26, DW_AT_external
    1425                      .dwattr $C$DW$26, DW_AT_TI_begin_file("D:/work/DSP/Steering_Engine/F2833x/v141/DSP2833x_common/source
    1426                      .dwattr $C$DW$26, DW_AT_TI_begin_line(0x146)
    1427                      .dwattr $C$DW$26, DW_AT_TI_begin_column(0x11)
    1428                      .dwattr $C$DW$26, DW_AT_TI_interrupt
    1429                      .dwattr $C$DW$26, DW_AT_TI_max_frame_size(-6)
    1430                      .dwpsn  file "D:/work/DSP/Steering_Engine/F2833x/v141/DSP2833x_common/source/DSP2833x_DefaultIsr.c",l
    1431              
    1432                      .dwfde $C$DW$CIE, _WAKEINT_ISR
    1433              
    1434              ;***************************************************************
    1435              ;* FNAME: _WAKEINT_ISR                  FR SIZE:   4           *
TMS320C2000 Assembler PC v15.12.1 Sat Jun 25 21:32:07 2016

Tools Copyright (c) 1996-2015 Texas Instruments Incorporated
C:\Users\RJKJ_ZGH\AppData\Local\Temp\0832410                         PAGE   28

    1436              ;*                                                             *
    1437              ;* FUNCTION ENVIRONMENT                                        *
    1438              ;*                                                             *
    1439              ;* FUNCTION PROPERTIES                                         *
    1440              ;*                            0 Parameter,  0 Auto,  4 SOE     *
    1441              ;***************************************************************
    1442              
    1443 000000fa       _WAKEINT_ISR:
    1444                      .dwcfi  cfa_offset, -2
    1445                      .dwcfi  save_reg_to_mem, 26, 0
    1446 000000fa 761B          ASP       ; [CPU_] 
    1447 000000fb FFF0          PUSH      RB                    ; [CPU_] 
    1448                      .dwcfi  save_reg_to_mem, 73, 2
    1449                      .dwcfi  save_reg_to_mem, 74, 3
    1450                      .dwcfi  cfa_offset, -4
    1451 000000fc E200          MOV32     *SP++,STF             ; [CPU_] 
         000000fd 00BD 
    1452                      .dwcfi  save_reg_to_mem, 39, 4
    1453                      .dwcfi  save_reg_to_mem, 40, 5
    1454                      .dwcfi  cfa_offset, -6
    1455 000000fe E630          SETFLG    RNDF32=1, RNDF64=1    ; [CPU_] 
         000000ff 0600 
    1456 00000100 2942          CLRC      PAGE0,OVM             ; [CPU_] 
    1457 00000101 5616          CLRC      AMODE                 ; [CPU_] 
    1458                      .dwpsn  file "D:/work/DSP/Steering_Engine/F2833x/v141/DSP2833x_common/source/DSP2833x_DefaultIsr.c",l
    1459 00000102 7625        ESTOP0
    1460 00000103       $C$L26:    
    1461                      .dwpsn  file "D:/work/DSP/Steering_Engine/F2833x/v141/DSP2833x_common/source/DSP2833x_DefaultIsr.c",l
    1462 00000103 6F00          B         $C$L26,UNC            ; [CPU_] |336| 
    1463                      ; branch occurs ; [] |336| 
    1464                      .dwattr $C$DW$26, DW_AT_TI_end_file("D:/work/DSP/Steering_Engine/F2833x/v141/DSP2833x_common/source/D
    1465                      .dwattr $C$DW$26, DW_AT_TI_end_line(0x151)
    1466                      .dwattr $C$DW$26, DW_AT_TI_end_column(0x01)
    1467                      .dwendentry
    1468                      .dwendtag $C$DW$26
    1469              
    1470 00000104               .sect   ".text:retain"
    1471                      .retain
    1472                      .retainrefs
    1473                      .global _EPWM1_TZINT_ISR
    1474              
    1475              $C$DW$27        .dwtag  DW_TAG_subprogram
    1476                      .dwattr $C$DW$27, DW_AT_name("EPWM1_TZINT_ISR")
    1477                      .dwattr $C$DW$27, DW_AT_low_pc(_EPWM1_TZINT_ISR)
    1478                      .dwattr $C$DW$27, DW_AT_high_pc(0x00)
    1479                      .dwattr $C$DW$27, DW_AT_TI_symbol_name("_EPWM1_TZINT_ISR")
    1480                      .dwattr $C$DW$27, DW_AT_external
    1481                      .dwattr $C$DW$27, DW_AT_TI_begin_file("D:/work/DSP/Steering_Engine/F2833x/v141/DSP2833x_common/source
    1482                      .dwattr $C$DW$27, DW_AT_TI_begin_line(0x159)
    1483                      .dwattr $C$DW$27, DW_AT_TI_begin_column(0x10)
    1484                      .dwattr $C$DW$27, DW_AT_TI_interrupt
    1485                      .dwattr $C$DW$27, DW_AT_TI_max_frame_size(-6)
    1486                      .dwpsn  file "D:/work/DSP/Steering_Engine/F2833x/v141/DSP2833x_common/source/DSP2833x_DefaultIsr.c",l
    1487              
    1488                      .dwfde $C$DW$CIE, _EPWM1_TZINT_ISR
TMS320C2000 Assembler PC v15.12.1 Sat Jun 25 21:32:07 2016

Tools Copyright (c) 1996-2015 Texas Instruments Incorporated
C:\Users\RJKJ_ZGH\AppData\Local\Temp\0832410                         PAGE   29

    1489              
    1490              ;***************************************************************
    1491              ;* FNAME: _EPWM1_TZINT_ISR              FR SIZE:   4           *
    1492              ;*                                                             *
    1493              ;* FUNCTION ENVIRONMENT                                        *
    1494              ;*                                                             *
    1495              ;* FUNCTION PROPERTIES                                         *
    1496              ;*                            0 Parameter,  0 Auto,  4 SOE     *
    1497              ;***************************************************************
    1498              
    1499 00000104       _EPWM1_TZINT_ISR:
    1500                      .dwcfi  cfa_offset, -2
    1501                      .dwcfi  save_reg_to_mem, 26, 0
    1502 00000104 761B          ASP       ; [CPU_] 
    1503 00000105 FFF0          PUSH      RB                    ; [CPU_] 
    1504                      .dwcfi  save_reg_to_mem, 73, 2
    1505                      .dwcfi  save_reg_to_mem, 74, 3
    1506                      .dwcfi  cfa_offset, -4
    1507 00000106 E200          MOV32     *SP++,STF             ; [CPU_] 
         00000107 00BD 
    1508                      .dwcfi  save_reg_to_mem, 39, 4
    1509                      .dwcfi  save_reg_to_mem, 40, 5
    1510                      .dwcfi  cfa_offset, -6
    1511 00000108 E630          SETFLG    RNDF32=1, RNDF64=1    ; [CPU_] 
         00000109 0600 
    1512 0000010a 2942          CLRC      PAGE0,OVM             ; [CPU_] 
    1513 0000010b 5616          CLRC      AMODE                 ; [CPU_] 
    1514                      .dwpsn  file "D:/work/DSP/Steering_Engine/F2833x/v141/DSP2833x_common/source/DSP2833x_DefaultIsr.c",l
    1515 0000010c 7625        ESTOP0
    1516 0000010d       $C$L27:    
    1517                      .dwpsn  file "D:/work/DSP/Steering_Engine/F2833x/v141/DSP2833x_common/source/DSP2833x_DefaultIsr.c",l
    1518 0000010d 6F00          B         $C$L27,UNC            ; [CPU_] |355| 
    1519                      ; branch occurs ; [] |355| 
    1520                      .dwattr $C$DW$27, DW_AT_TI_end_file("D:/work/DSP/Steering_Engine/F2833x/v141/DSP2833x_common/source/D
    1521                      .dwattr $C$DW$27, DW_AT_TI_end_line(0x164)
    1522                      .dwattr $C$DW$27, DW_AT_TI_end_column(0x01)
    1523                      .dwendentry
    1524                      .dwendtag $C$DW$27
    1525              
    1526 0000010e               .sect   ".text:retain"
    1527                      .retain
    1528                      .retainrefs
    1529                      .global _EPWM2_TZINT_ISR
    1530              
    1531              $C$DW$28        .dwtag  DW_TAG_subprogram
    1532                      .dwattr $C$DW$28, DW_AT_name("EPWM2_TZINT_ISR")
    1533                      .dwattr $C$DW$28, DW_AT_low_pc(_EPWM2_TZINT_ISR)
    1534                      .dwattr $C$DW$28, DW_AT_high_pc(0x00)
    1535                      .dwattr $C$DW$28, DW_AT_TI_symbol_name("_EPWM2_TZINT_ISR")
    1536                      .dwattr $C$DW$28, DW_AT_external
    1537                      .dwattr $C$DW$28, DW_AT_TI_begin_file("D:/work/DSP/Steering_Engine/F2833x/v141/DSP2833x_common/source
    1538                      .dwattr $C$DW$28, DW_AT_TI_begin_line(0x167)
    1539                      .dwattr $C$DW$28, DW_AT_TI_begin_column(0x10)
    1540                      .dwattr $C$DW$28, DW_AT_TI_interrupt
    1541                      .dwattr $C$DW$28, DW_AT_TI_max_frame_size(-6)
TMS320C2000 Assembler PC v15.12.1 Sat Jun 25 21:32:07 2016

Tools Copyright (c) 1996-2015 Texas Instruments Incorporated
C:\Users\RJKJ_ZGH\AppData\Local\Temp\0832410                         PAGE   30

    1542                      .dwpsn  file "D:/work/DSP/Steering_Engine/F2833x/v141/DSP2833x_common/source/DSP2833x_DefaultIsr.c",l
    1543              
    1544                      .dwfde $C$DW$CIE, _EPWM2_TZINT_ISR
    1545              
    1546              ;***************************************************************
    1547              ;* FNAME: _EPWM2_TZINT_ISR              FR SIZE:   4           *
    1548              ;*                                                             *
    1549              ;* FUNCTION ENVIRONMENT                                        *
    1550              ;*                                                             *
    1551              ;* FUNCTION PROPERTIES                                         *
    1552              ;*                            0 Parameter,  0 Auto,  4 SOE     *
    1553              ;***************************************************************
    1554              
    1555 0000010e       _EPWM2_TZINT_ISR:
    1556                      .dwcfi  cfa_offset, -2
    1557                      .dwcfi  save_reg_to_mem, 26, 0
    1558 0000010e 761B          ASP       ; [CPU_] 
    1559 0000010f FFF0          PUSH      RB                    ; [CPU_] 
    1560                      .dwcfi  save_reg_to_mem, 73, 2
    1561                      .dwcfi  save_reg_to_mem, 74, 3
    1562                      .dwcfi  cfa_offset, -4
    1563 00000110 E200          MOV32     *SP++,STF             ; [CPU_] 
         00000111 00BD 
    1564                      .dwcfi  save_reg_to_mem, 39, 4
    1565                      .dwcfi  save_reg_to_mem, 40, 5
    1566                      .dwcfi  cfa_offset, -6
    1567 00000112 E630          SETFLG    RNDF32=1, RNDF64=1    ; [CPU_] 
         00000113 0600 
    1568 00000114 2942          CLRC      PAGE0,OVM             ; [CPU_] 
    1569 00000115 5616          CLRC      AMODE                 ; [CPU_] 
    1570                      .dwpsn  file "D:/work/DSP/Steering_Engine/F2833x/v141/DSP2833x_common/source/DSP2833x_DefaultIsr.c",l
    1571 00000116 7625        ESTOP0
    1572 00000117       $C$L28:    
    1573                      .dwpsn  file "D:/work/DSP/Steering_Engine/F2833x/v141/DSP2833x_common/source/DSP2833x_DefaultIsr.c",l
    1574 00000117 6F00          B         $C$L28,UNC            ; [CPU_] |369| 
    1575                      ; branch occurs ; [] |369| 
    1576                      .dwattr $C$DW$28, DW_AT_TI_end_file("D:/work/DSP/Steering_Engine/F2833x/v141/DSP2833x_common/source/D
    1577                      .dwattr $C$DW$28, DW_AT_TI_end_line(0x172)
    1578                      .dwattr $C$DW$28, DW_AT_TI_end_column(0x01)
    1579                      .dwendentry
    1580                      .dwendtag $C$DW$28
    1581              
    1582 00000118               .sect   ".text:retain"
    1583                      .retain
    1584                      .retainrefs
    1585                      .global _EPWM3_TZINT_ISR
    1586              
    1587              $C$DW$29        .dwtag  DW_TAG_subprogram
    1588                      .dwattr $C$DW$29, DW_AT_name("EPWM3_TZINT_ISR")
    1589                      .dwattr $C$DW$29, DW_AT_low_pc(_EPWM3_TZINT_ISR)
    1590                      .dwattr $C$DW$29, DW_AT_high_pc(0x00)
    1591                      .dwattr $C$DW$29, DW_AT_TI_symbol_name("_EPWM3_TZINT_ISR")
    1592                      .dwattr $C$DW$29, DW_AT_external
    1593                      .dwattr $C$DW$29, DW_AT_TI_begin_file("D:/work/DSP/Steering_Engine/F2833x/v141/DSP2833x_common/source
    1594                      .dwattr $C$DW$29, DW_AT_TI_begin_line(0x175)
TMS320C2000 Assembler PC v15.12.1 Sat Jun 25 21:32:07 2016

Tools Copyright (c) 1996-2015 Texas Instruments Incorporated
C:\Users\RJKJ_ZGH\AppData\Local\Temp\0832410                         PAGE   31

    1595                      .dwattr $C$DW$29, DW_AT_TI_begin_column(0x10)
    1596                      .dwattr $C$DW$29, DW_AT_TI_interrupt
    1597                      .dwattr $C$DW$29, DW_AT_TI_max_frame_size(-6)
    1598                      .dwpsn  file "D:/work/DSP/Steering_Engine/F2833x/v141/DSP2833x_common/source/DSP2833x_DefaultIsr.c",l
    1599              
    1600                      .dwfde $C$DW$CIE, _EPWM3_TZINT_ISR
    1601              
    1602              ;***************************************************************
    1603              ;* FNAME: _EPWM3_TZINT_ISR              FR SIZE:   4           *
    1604              ;*                                                             *
    1605              ;* FUNCTION ENVIRONMENT                                        *
    1606              ;*                                                             *
    1607              ;* FUNCTION PROPERTIES                                         *
    1608              ;*                            0 Parameter,  0 Auto,  4 SOE     *
    1609              ;***************************************************************
    1610              
    1611 00000118       _EPWM3_TZINT_ISR:
    1612                      .dwcfi  cfa_offset, -2
    1613                      .dwcfi  save_reg_to_mem, 26, 0
    1614 00000118 761B          ASP       ; [CPU_] 
    1615 00000119 FFF0          PUSH      RB                    ; [CPU_] 
    1616                      .dwcfi  save_reg_to_mem, 73, 2
    1617                      .dwcfi  save_reg_to_mem, 74, 3
    1618                      .dwcfi  cfa_offset, -4
    1619 0000011a E200          MOV32     *SP++,STF             ; [CPU_] 
         0000011b 00BD 
    1620                      .dwcfi  save_reg_to_mem, 39, 4
    1621                      .dwcfi  save_reg_to_mem, 40, 5
    1622                      .dwcfi  cfa_offset, -6
    1623 0000011c E630          SETFLG    RNDF32=1, RNDF64=1    ; [CPU_] 
         0000011d 0600 
    1624 0000011e 2942          CLRC      PAGE0,OVM             ; [CPU_] 
    1625 0000011f 5616          CLRC      AMODE                 ; [CPU_] 
    1626                      .dwpsn  file "D:/work/DSP/Steering_Engine/F2833x/v141/DSP2833x_common/source/DSP2833x_DefaultIsr.c",l
    1627 00000120 7625        ESTOP0
    1628 00000121       $C$L29:    
    1629                      .dwpsn  file "D:/work/DSP/Steering_Engine/F2833x/v141/DSP2833x_common/source/DSP2833x_DefaultIsr.c",l
    1630 00000121 6F00          B         $C$L29,UNC            ; [CPU_] |383| 
    1631                      ; branch occurs ; [] |383| 
    1632                      .dwattr $C$DW$29, DW_AT_TI_end_file("D:/work/DSP/Steering_Engine/F2833x/v141/DSP2833x_common/source/D
    1633                      .dwattr $C$DW$29, DW_AT_TI_end_line(0x180)
    1634                      .dwattr $C$DW$29, DW_AT_TI_end_column(0x01)
    1635                      .dwendentry
    1636                      .dwendtag $C$DW$29
    1637              
    1638 00000122               .sect   ".text:retain"
    1639                      .retain
    1640                      .retainrefs
    1641                      .global _EPWM4_TZINT_ISR
    1642              
    1643              $C$DW$30        .dwtag  DW_TAG_subprogram
    1644                      .dwattr $C$DW$30, DW_AT_name("EPWM4_TZINT_ISR")
    1645                      .dwattr $C$DW$30, DW_AT_low_pc(_EPWM4_TZINT_ISR)
    1646                      .dwattr $C$DW$30, DW_AT_high_pc(0x00)
    1647                      .dwattr $C$DW$30, DW_AT_TI_symbol_name("_EPWM4_TZINT_ISR")
TMS320C2000 Assembler PC v15.12.1 Sat Jun 25 21:32:07 2016

Tools Copyright (c) 1996-2015 Texas Instruments Incorporated
C:\Users\RJKJ_ZGH\AppData\Local\Temp\0832410                         PAGE   32

    1648                      .dwattr $C$DW$30, DW_AT_external
    1649                      .dwattr $C$DW$30, DW_AT_TI_begin_file("D:/work/DSP/Steering_Engine/F2833x/v141/DSP2833x_common/source
    1650                      .dwattr $C$DW$30, DW_AT_TI_begin_line(0x184)
    1651                      .dwattr $C$DW$30, DW_AT_TI_begin_column(0x10)
    1652                      .dwattr $C$DW$30, DW_AT_TI_interrupt
    1653                      .dwattr $C$DW$30, DW_AT_TI_max_frame_size(-6)
    1654                      .dwpsn  file "D:/work/DSP/Steering_Engine/F2833x/v141/DSP2833x_common/source/DSP2833x_DefaultIsr.c",l
    1655              
    1656                      .dwfde $C$DW$CIE, _EPWM4_TZINT_ISR
    1657              
    1658              ;***************************************************************
    1659              ;* FNAME: _EPWM4_TZINT_ISR              FR SIZE:   4           *
    1660              ;*                                                             *
    1661              ;* FUNCTION ENVIRONMENT                                        *
    1662              ;*                                                             *
    1663              ;* FUNCTION PROPERTIES                                         *
    1664              ;*                            0 Parameter,  0 Auto,  4 SOE     *
    1665              ;***************************************************************
    1666              
    1667 00000122       _EPWM4_TZINT_ISR:
    1668                      .dwcfi  cfa_offset, -2
    1669                      .dwcfi  save_reg_to_mem, 26, 0
    1670 00000122 761B          ASP       ; [CPU_] 
    1671 00000123 FFF0          PUSH      RB                    ; [CPU_] 
    1672                      .dwcfi  save_reg_to_mem, 73, 2
    1673                      .dwcfi  save_reg_to_mem, 74, 3
    1674                      .dwcfi  cfa_offset, -4
    1675 00000124 E200          MOV32     *SP++,STF             ; [CPU_] 
         00000125 00BD 
    1676                      .dwcfi  save_reg_to_mem, 39, 4
    1677                      .dwcfi  save_reg_to_mem, 40, 5
    1678                      .dwcfi  cfa_offset, -6
    1679 00000126 E630          SETFLG    RNDF32=1, RNDF64=1    ; [CPU_] 
         00000127 0600 
    1680 00000128 2942          CLRC      PAGE0,OVM             ; [CPU_] 
    1681 00000129 5616          CLRC      AMODE                 ; [CPU_] 
    1682                      .dwpsn  file "D:/work/DSP/Steering_Engine/F2833x/v141/DSP2833x_common/source/DSP2833x_DefaultIsr.c",l
    1683 0000012a 7625        ESTOP0
    1684 0000012b       $C$L30:    
    1685                      .dwpsn  file "D:/work/DSP/Steering_Engine/F2833x/v141/DSP2833x_common/source/DSP2833x_DefaultIsr.c",l
    1686 0000012b 6F00          B         $C$L30,UNC            ; [CPU_] |398| 
    1687                      ; branch occurs ; [] |398| 
    1688                      .dwattr $C$DW$30, DW_AT_TI_end_file("D:/work/DSP/Steering_Engine/F2833x/v141/DSP2833x_common/source/D
    1689                      .dwattr $C$DW$30, DW_AT_TI_end_line(0x18f)
    1690                      .dwattr $C$DW$30, DW_AT_TI_end_column(0x01)
    1691                      .dwendentry
    1692                      .dwendtag $C$DW$30
    1693              
    1694 0000012c               .sect   ".text:retain"
    1695                      .retain
    1696                      .retainrefs
    1697                      .global _EPWM5_TZINT_ISR
    1698              
    1699              $C$DW$31        .dwtag  DW_TAG_subprogram
    1700                      .dwattr $C$DW$31, DW_AT_name("EPWM5_TZINT_ISR")
TMS320C2000 Assembler PC v15.12.1 Sat Jun 25 21:32:07 2016

Tools Copyright (c) 1996-2015 Texas Instruments Incorporated
C:\Users\RJKJ_ZGH\AppData\Local\Temp\0832410                         PAGE   33

    1701                      .dwattr $C$DW$31, DW_AT_low_pc(_EPWM5_TZINT_ISR)
    1702                      .dwattr $C$DW$31, DW_AT_high_pc(0x00)
    1703                      .dwattr $C$DW$31, DW_AT_TI_symbol_name("_EPWM5_TZINT_ISR")
    1704                      .dwattr $C$DW$31, DW_AT_external
    1705                      .dwattr $C$DW$31, DW_AT_TI_begin_file("D:/work/DSP/Steering_Engine/F2833x/v141/DSP2833x_common/source
    1706                      .dwattr $C$DW$31, DW_AT_TI_begin_line(0x193)
    1707                      .dwattr $C$DW$31, DW_AT_TI_begin_column(0x10)
    1708                      .dwattr $C$DW$31, DW_AT_TI_interrupt
    1709                      .dwattr $C$DW$31, DW_AT_TI_max_frame_size(-6)
    1710                      .dwpsn  file "D:/work/DSP/Steering_Engine/F2833x/v141/DSP2833x_common/source/DSP2833x_DefaultIsr.c",l
    1711              
    1712                      .dwfde $C$DW$CIE, _EPWM5_TZINT_ISR
    1713              
    1714              ;***************************************************************
    1715              ;* FNAME: _EPWM5_TZINT_ISR              FR SIZE:   4           *
    1716              ;*                                                             *
    1717              ;* FUNCTION ENVIRONMENT                                        *
    1718              ;*                                                             *
    1719              ;* FUNCTION PROPERTIES                                         *
    1720              ;*                            0 Parameter,  0 Auto,  4 SOE     *
    1721              ;***************************************************************
    1722              
    1723 0000012c       _EPWM5_TZINT_ISR:
    1724                      .dwcfi  cfa_offset, -2
    1725                      .dwcfi  save_reg_to_mem, 26, 0
    1726 0000012c 761B          ASP       ; [CPU_] 
    1727 0000012d FFF0          PUSH      RB                    ; [CPU_] 
    1728                      .dwcfi  save_reg_to_mem, 73, 2
    1729                      .dwcfi  save_reg_to_mem, 74, 3
    1730                      .dwcfi  cfa_offset, -4
    1731 0000012e E200          MOV32     *SP++,STF             ; [CPU_] 
         0000012f 00BD 
    1732                      .dwcfi  save_reg_to_mem, 39, 4
    1733                      .dwcfi  save_reg_to_mem, 40, 5
    1734                      .dwcfi  cfa_offset, -6
    1735 00000130 E630          SETFLG    RNDF32=1, RNDF64=1    ; [CPU_] 
         00000131 0600 
    1736 00000132 2942          CLRC      PAGE0,OVM             ; [CPU_] 
    1737 00000133 5616          CLRC      AMODE                 ; [CPU_] 
    1738                      .dwpsn  file "D:/work/DSP/Steering_Engine/F2833x/v141/DSP2833x_common/source/DSP2833x_DefaultIsr.c",l
    1739 00000134 7625        ESTOP0
    1740 00000135       $C$L31:    
    1741                      .dwpsn  file "D:/work/DSP/Steering_Engine/F2833x/v141/DSP2833x_common/source/DSP2833x_DefaultIsr.c",l
    1742 00000135 6F00          B         $C$L31,UNC            ; [CPU_] |413| 
    1743                      ; branch occurs ; [] |413| 
    1744                      .dwattr $C$DW$31, DW_AT_TI_end_file("D:/work/DSP/Steering_Engine/F2833x/v141/DSP2833x_common/source/D
    1745                      .dwattr $C$DW$31, DW_AT_TI_end_line(0x19e)
    1746                      .dwattr $C$DW$31, DW_AT_TI_end_column(0x01)
    1747                      .dwendentry
    1748                      .dwendtag $C$DW$31
    1749              
    1750 00000136               .sect   ".text:retain"
    1751                      .retain
    1752                      .retainrefs
    1753                      .global _EPWM6_TZINT_ISR
TMS320C2000 Assembler PC v15.12.1 Sat Jun 25 21:32:07 2016

Tools Copyright (c) 1996-2015 Texas Instruments Incorporated
C:\Users\RJKJ_ZGH\AppData\Local\Temp\0832410                         PAGE   34

    1754              
    1755              $C$DW$32        .dwtag  DW_TAG_subprogram
    1756                      .dwattr $C$DW$32, DW_AT_name("EPWM6_TZINT_ISR")
    1757                      .dwattr $C$DW$32, DW_AT_low_pc(_EPWM6_TZINT_ISR)
    1758                      .dwattr $C$DW$32, DW_AT_high_pc(0x00)
    1759                      .dwattr $C$DW$32, DW_AT_TI_symbol_name("_EPWM6_TZINT_ISR")
    1760                      .dwattr $C$DW$32, DW_AT_external
    1761                      .dwattr $C$DW$32, DW_AT_TI_begin_file("D:/work/DSP/Steering_Engine/F2833x/v141/DSP2833x_common/source
    1762                      .dwattr $C$DW$32, DW_AT_TI_begin_line(0x1a1)
    1763                      .dwattr $C$DW$32, DW_AT_TI_begin_column(0x10)
    1764                      .dwattr $C$DW$32, DW_AT_TI_interrupt
    1765                      .dwattr $C$DW$32, DW_AT_TI_max_frame_size(-6)
    1766                      .dwpsn  file "D:/work/DSP/Steering_Engine/F2833x/v141/DSP2833x_common/source/DSP2833x_DefaultIsr.c",l
    1767              
    1768                      .dwfde $C$DW$CIE, _EPWM6_TZINT_ISR
    1769              
    1770              ;***************************************************************
    1771              ;* FNAME: _EPWM6_TZINT_ISR              FR SIZE:   4           *
    1772              ;*                                                             *
    1773              ;* FUNCTION ENVIRONMENT                                        *
    1774              ;*                                                             *
    1775              ;* FUNCTION PROPERTIES                                         *
    1776              ;*                            0 Parameter,  0 Auto,  4 SOE     *
    1777              ;***************************************************************
    1778              
    1779 00000136       _EPWM6_TZINT_ISR:
    1780                      .dwcfi  cfa_offset, -2
    1781                      .dwcfi  save_reg_to_mem, 26, 0
    1782 00000136 761B          ASP       ; [CPU_] 
    1783 00000137 FFF0          PUSH      RB                    ; [CPU_] 
    1784                      .dwcfi  save_reg_to_mem, 73, 2
    1785                      .dwcfi  save_reg_to_mem, 74, 3
    1786                      .dwcfi  cfa_offset, -4
    1787 00000138 E200          MOV32     *SP++,STF             ; [CPU_] 
         00000139 00BD 
    1788                      .dwcfi  save_reg_to_mem, 39, 4
    1789                      .dwcfi  save_reg_to_mem, 40, 5
    1790                      .dwcfi  cfa_offset, -6
    1791 0000013a E630          SETFLG    RNDF32=1, RNDF64=1    ; [CPU_] 
         0000013b 0600 
    1792 0000013c 2942          CLRC      PAGE0,OVM             ; [CPU_] 
    1793 0000013d 5616          CLRC      AMODE                 ; [CPU_] 
    1794                      .dwpsn  file "D:/work/DSP/Steering_Engine/F2833x/v141/DSP2833x_common/source/DSP2833x_DefaultIsr.c",l
    1795 0000013e 7625        ESTOP0
    1796 0000013f       $C$L32:    
    1797                      .dwpsn  file "D:/work/DSP/Steering_Engine/F2833x/v141/DSP2833x_common/source/DSP2833x_DefaultIsr.c",l
    1798 0000013f 6F00          B         $C$L32,UNC            ; [CPU_] |428| 
    1799                      ; branch occurs ; [] |428| 
    1800                      .dwattr $C$DW$32, DW_AT_TI_end_file("D:/work/DSP/Steering_Engine/F2833x/v141/DSP2833x_common/source/D
    1801                      .dwattr $C$DW$32, DW_AT_TI_end_line(0x1ad)
    1802                      .dwattr $C$DW$32, DW_AT_TI_end_column(0x01)
    1803                      .dwendentry
    1804                      .dwendtag $C$DW$32
    1805              
    1806 00000140               .sect   ".text:retain"
TMS320C2000 Assembler PC v15.12.1 Sat Jun 25 21:32:07 2016

Tools Copyright (c) 1996-2015 Texas Instruments Incorporated
C:\Users\RJKJ_ZGH\AppData\Local\Temp\0832410                         PAGE   35

    1807                      .retain
    1808                      .retainrefs
    1809                      .global _EPWM1_INT_ISR
    1810              
    1811              $C$DW$33        .dwtag  DW_TAG_subprogram
    1812                      .dwattr $C$DW$33, DW_AT_name("EPWM1_INT_ISR")
    1813                      .dwattr $C$DW$33, DW_AT_low_pc(_EPWM1_INT_ISR)
    1814                      .dwattr $C$DW$33, DW_AT_high_pc(0x00)
    1815                      .dwattr $C$DW$33, DW_AT_TI_symbol_name("_EPWM1_INT_ISR")
    1816                      .dwattr $C$DW$33, DW_AT_external
    1817                      .dwattr $C$DW$33, DW_AT_TI_begin_file("D:/work/DSP/Steering_Engine/F2833x/v141/DSP2833x_common/source
    1818                      .dwattr $C$DW$33, DW_AT_TI_begin_line(0x1b7)
    1819                      .dwattr $C$DW$33, DW_AT_TI_begin_column(0x10)
    1820                      .dwattr $C$DW$33, DW_AT_TI_interrupt
    1821                      .dwattr $C$DW$33, DW_AT_TI_max_frame_size(-6)
    1822                      .dwpsn  file "D:/work/DSP/Steering_Engine/F2833x/v141/DSP2833x_common/source/DSP2833x_DefaultIsr.c",l
    1823              
    1824                      .dwfde $C$DW$CIE, _EPWM1_INT_ISR
    1825              
    1826              ;***************************************************************
    1827              ;* FNAME: _EPWM1_INT_ISR                FR SIZE:   4           *
    1828              ;*                                                             *
    1829              ;* FUNCTION ENVIRONMENT                                        *
    1830              ;*                                                             *
    1831              ;* FUNCTION PROPERTIES                                         *
    1832              ;*                            0 Parameter,  0 Auto,  4 SOE     *
    1833              ;***************************************************************
    1834              
    1835 00000140       _EPWM1_INT_ISR:
    1836                      .dwcfi  cfa_offset, -2
    1837                      .dwcfi  save_reg_to_mem, 26, 0
    1838 00000140 761B          ASP       ; [CPU_] 
    1839 00000141 FFF0          PUSH      RB                    ; [CPU_] 
    1840                      .dwcfi  save_reg_to_mem, 73, 2
    1841                      .dwcfi  save_reg_to_mem, 74, 3
    1842                      .dwcfi  cfa_offset, -4
    1843 00000142 E200          MOV32     *SP++,STF             ; [CPU_] 
         00000143 00BD 
    1844                      .dwcfi  save_reg_to_mem, 39, 4
    1845                      .dwcfi  save_reg_to_mem, 40, 5
    1846                      .dwcfi  cfa_offset, -6
    1847 00000144 E630          SETFLG    RNDF32=1, RNDF64=1    ; [CPU_] 
         00000145 0600 
    1848 00000146 2942          CLRC      PAGE0,OVM             ; [CPU_] 
    1849 00000147 5616          CLRC      AMODE                 ; [CPU_] 
    1850                      .dwpsn  file "D:/work/DSP/Steering_Engine/F2833x/v141/DSP2833x_common/source/DSP2833x_DefaultIsr.c",l
    1851 00000148 7625        ESTOP0
    1852 00000149       $C$L33:    
    1853                      .dwpsn  file "D:/work/DSP/Steering_Engine/F2833x/v141/DSP2833x_common/source/DSP2833x_DefaultIsr.c",l
    1854 00000149 6F00          B         $C$L33,UNC            ; [CPU_] |449| 
    1855                      ; branch occurs ; [] |449| 
    1856                      .dwattr $C$DW$33, DW_AT_TI_end_file("D:/work/DSP/Steering_Engine/F2833x/v141/DSP2833x_common/source/D
    1857                      .dwattr $C$DW$33, DW_AT_TI_end_line(0x1c2)
    1858                      .dwattr $C$DW$33, DW_AT_TI_end_column(0x01)
    1859                      .dwendentry
TMS320C2000 Assembler PC v15.12.1 Sat Jun 25 21:32:07 2016

Tools Copyright (c) 1996-2015 Texas Instruments Incorporated
C:\Users\RJKJ_ZGH\AppData\Local\Temp\0832410                         PAGE   36

    1860                      .dwendtag $C$DW$33
    1861              
    1862 0000014a               .sect   ".text:retain"
    1863                      .retain
    1864                      .retainrefs
    1865                      .global _EPWM2_INT_ISR
    1866              
    1867              $C$DW$34        .dwtag  DW_TAG_subprogram
    1868                      .dwattr $C$DW$34, DW_AT_name("EPWM2_INT_ISR")
    1869                      .dwattr $C$DW$34, DW_AT_low_pc(_EPWM2_INT_ISR)
    1870                      .dwattr $C$DW$34, DW_AT_high_pc(0x00)
    1871                      .dwattr $C$DW$34, DW_AT_TI_symbol_name("_EPWM2_INT_ISR")
    1872                      .dwattr $C$DW$34, DW_AT_external
    1873                      .dwattr $C$DW$34, DW_AT_TI_begin_file("D:/work/DSP/Steering_Engine/F2833x/v141/DSP2833x_common/source
    1874                      .dwattr $C$DW$34, DW_AT_TI_begin_line(0x1c5)
    1875                      .dwattr $C$DW$34, DW_AT_TI_begin_column(0x10)
    1876                      .dwattr $C$DW$34, DW_AT_TI_interrupt
    1877                      .dwattr $C$DW$34, DW_AT_TI_max_frame_size(-6)
    1878                      .dwpsn  file "D:/work/DSP/Steering_Engine/F2833x/v141/DSP2833x_common/source/DSP2833x_DefaultIsr.c",l
    1879              
    1880                      .dwfde $C$DW$CIE, _EPWM2_INT_ISR
    1881              
    1882              ;***************************************************************
    1883              ;* FNAME: _EPWM2_INT_ISR                FR SIZE:   4           *
    1884              ;*                                                             *
    1885              ;* FUNCTION ENVIRONMENT                                        *
    1886              ;*                                                             *
    1887              ;* FUNCTION PROPERTIES                                         *
    1888              ;*                            0 Parameter,  0 Auto,  4 SOE     *
    1889              ;***************************************************************
    1890              
    1891 0000014a       _EPWM2_INT_ISR:
    1892                      .dwcfi  cfa_offset, -2
    1893                      .dwcfi  save_reg_to_mem, 26, 0
    1894 0000014a 761B          ASP       ; [CPU_] 
    1895 0000014b FFF0          PUSH      RB                    ; [CPU_] 
    1896                      .dwcfi  save_reg_to_mem, 73, 2
    1897                      .dwcfi  save_reg_to_mem, 74, 3
    1898                      .dwcfi  cfa_offset, -4
    1899 0000014c E200          MOV32     *SP++,STF             ; [CPU_] 
         0000014d 00BD 
    1900                      .dwcfi  save_reg_to_mem, 39, 4
    1901                      .dwcfi  save_reg_to_mem, 40, 5
    1902                      .dwcfi  cfa_offset, -6
    1903 0000014e E630          SETFLG    RNDF32=1, RNDF64=1    ; [CPU_] 
         0000014f 0600 
    1904 00000150 2942          CLRC      PAGE0,OVM             ; [CPU_] 
    1905 00000151 5616          CLRC      AMODE                 ; [CPU_] 
    1906                      .dwpsn  file "D:/work/DSP/Steering_Engine/F2833x/v141/DSP2833x_common/source/DSP2833x_DefaultIsr.c",l
    1907 00000152 7625        ESTOP0
    1908 00000153       $C$L34:    
    1909                      .dwpsn  file "D:/work/DSP/Steering_Engine/F2833x/v141/DSP2833x_common/source/DSP2833x_DefaultIsr.c",l
    1910 00000153 6F00          B         $C$L34,UNC            ; [CPU_] |463| 
    1911                      ; branch occurs ; [] |463| 
    1912                      .dwattr $C$DW$34, DW_AT_TI_end_file("D:/work/DSP/Steering_Engine/F2833x/v141/DSP2833x_common/source/D
TMS320C2000 Assembler PC v15.12.1 Sat Jun 25 21:32:07 2016

Tools Copyright (c) 1996-2015 Texas Instruments Incorporated
C:\Users\RJKJ_ZGH\AppData\Local\Temp\0832410                         PAGE   37

    1913                      .dwattr $C$DW$34, DW_AT_TI_end_line(0x1d0)
    1914                      .dwattr $C$DW$34, DW_AT_TI_end_column(0x01)
    1915                      .dwendentry
    1916                      .dwendtag $C$DW$34
    1917              
    1918 00000154               .sect   ".text:retain"
    1919                      .retain
    1920                      .retainrefs
    1921                      .global _EPWM3_INT_ISR
    1922              
    1923              $C$DW$35        .dwtag  DW_TAG_subprogram
    1924                      .dwattr $C$DW$35, DW_AT_name("EPWM3_INT_ISR")
    1925                      .dwattr $C$DW$35, DW_AT_low_pc(_EPWM3_INT_ISR)
    1926                      .dwattr $C$DW$35, DW_AT_high_pc(0x00)
    1927                      .dwattr $C$DW$35, DW_AT_TI_symbol_name("_EPWM3_INT_ISR")
    1928                      .dwattr $C$DW$35, DW_AT_external
    1929                      .dwattr $C$DW$35, DW_AT_TI_begin_file("D:/work/DSP/Steering_Engine/F2833x/v141/DSP2833x_common/source
    1930                      .dwattr $C$DW$35, DW_AT_TI_begin_line(0x1d3)
    1931                      .dwattr $C$DW$35, DW_AT_TI_begin_column(0x10)
    1932                      .dwattr $C$DW$35, DW_AT_TI_interrupt
    1933                      .dwattr $C$DW$35, DW_AT_TI_max_frame_size(-6)
    1934                      .dwpsn  file "D:/work/DSP/Steering_Engine/F2833x/v141/DSP2833x_common/source/DSP2833x_DefaultIsr.c",l
    1935              
    1936                      .dwfde $C$DW$CIE, _EPWM3_INT_ISR
    1937              
    1938              ;***************************************************************
    1939              ;* FNAME: _EPWM3_INT_ISR                FR SIZE:   4           *
    1940              ;*                                                             *
    1941              ;* FUNCTION ENVIRONMENT                                        *
    1942              ;*                                                             *
    1943              ;* FUNCTION PROPERTIES                                         *
    1944              ;*                            0 Parameter,  0 Auto,  4 SOE     *
    1945              ;***************************************************************
    1946              
    1947 00000154       _EPWM3_INT_ISR:
    1948                      .dwcfi  cfa_offset, -2
    1949                      .dwcfi  save_reg_to_mem, 26, 0
    1950 00000154 761B          ASP       ; [CPU_] 
    1951 00000155 FFF0          PUSH      RB                    ; [CPU_] 
    1952                      .dwcfi  save_reg_to_mem, 73, 2
    1953                      .dwcfi  save_reg_to_mem, 74, 3
    1954                      .dwcfi  cfa_offset, -4
    1955 00000156 E200          MOV32     *SP++,STF             ; [CPU_] 
         00000157 00BD 
    1956                      .dwcfi  save_reg_to_mem, 39, 4
    1957                      .dwcfi  save_reg_to_mem, 40, 5
    1958                      .dwcfi  cfa_offset, -6
    1959 00000158 E630          SETFLG    RNDF32=1, RNDF64=1    ; [CPU_] 
         00000159 0600 
    1960 0000015a 2942          CLRC      PAGE0,OVM             ; [CPU_] 
    1961 0000015b 5616          CLRC      AMODE                 ; [CPU_] 
    1962                      .dwpsn  file "D:/work/DSP/Steering_Engine/F2833x/v141/DSP2833x_common/source/DSP2833x_DefaultIsr.c",l
    1963 0000015c 7625        ESTOP0
    1964 0000015d       $C$L35:    
    1965                      .dwpsn  file "D:/work/DSP/Steering_Engine/F2833x/v141/DSP2833x_common/source/DSP2833x_DefaultIsr.c",l
TMS320C2000 Assembler PC v15.12.1 Sat Jun 25 21:32:07 2016

Tools Copyright (c) 1996-2015 Texas Instruments Incorporated
C:\Users\RJKJ_ZGH\AppData\Local\Temp\0832410                         PAGE   38

    1966 0000015d 6F00          B         $C$L35,UNC            ; [CPU_] |477| 
    1967                      ; branch occurs ; [] |477| 
    1968                      .dwattr $C$DW$35, DW_AT_TI_end_file("D:/work/DSP/Steering_Engine/F2833x/v141/DSP2833x_common/source/D
    1969                      .dwattr $C$DW$35, DW_AT_TI_end_line(0x1de)
    1970                      .dwattr $C$DW$35, DW_AT_TI_end_column(0x01)
    1971                      .dwendentry
    1972                      .dwendtag $C$DW$35
    1973              
    1974 0000015e               .sect   ".text:retain"
    1975                      .retain
    1976                      .retainrefs
    1977                      .global _EPWM4_INT_ISR
    1978              
    1979              $C$DW$36        .dwtag  DW_TAG_subprogram
    1980                      .dwattr $C$DW$36, DW_AT_name("EPWM4_INT_ISR")
    1981                      .dwattr $C$DW$36, DW_AT_low_pc(_EPWM4_INT_ISR)
    1982                      .dwattr $C$DW$36, DW_AT_high_pc(0x00)
    1983                      .dwattr $C$DW$36, DW_AT_TI_symbol_name("_EPWM4_INT_ISR")
    1984                      .dwattr $C$DW$36, DW_AT_external
    1985                      .dwattr $C$DW$36, DW_AT_TI_begin_file("D:/work/DSP/Steering_Engine/F2833x/v141/DSP2833x_common/source
    1986                      .dwattr $C$DW$36, DW_AT_TI_begin_line(0x1e1)
    1987                      .dwattr $C$DW$36, DW_AT_TI_begin_column(0x10)
    1988                      .dwattr $C$DW$36, DW_AT_TI_interrupt
    1989                      .dwattr $C$DW$36, DW_AT_TI_max_frame_size(-6)
    1990                      .dwpsn  file "D:/work/DSP/Steering_Engine/F2833x/v141/DSP2833x_common/source/DSP2833x_DefaultIsr.c",l
    1991              
    1992                      .dwfde $C$DW$CIE, _EPWM4_INT_ISR
    1993              
    1994              ;***************************************************************
    1995              ;* FNAME: _EPWM4_INT_ISR                FR SIZE:   4           *
    1996              ;*                                                             *
    1997              ;* FUNCTION ENVIRONMENT                                        *
    1998              ;*                                                             *
    1999              ;* FUNCTION PROPERTIES                                         *
    2000              ;*                            0 Parameter,  0 Auto,  4 SOE     *
    2001              ;***************************************************************
    2002              
    2003 0000015e       _EPWM4_INT_ISR:
    2004                      .dwcfi  cfa_offset, -2
    2005                      .dwcfi  save_reg_to_mem, 26, 0
    2006 0000015e 761B          ASP       ; [CPU_] 
    2007 0000015f FFF0          PUSH      RB                    ; [CPU_] 
    2008                      .dwcfi  save_reg_to_mem, 73, 2
    2009                      .dwcfi  save_reg_to_mem, 74, 3
    2010                      .dwcfi  cfa_offset, -4
    2011 00000160 E200          MOV32     *SP++,STF             ; [CPU_] 
         00000161 00BD 
    2012                      .dwcfi  save_reg_to_mem, 39, 4
    2013                      .dwcfi  save_reg_to_mem, 40, 5
    2014                      .dwcfi  cfa_offset, -6
    2015 00000162 E630          SETFLG    RNDF32=1, RNDF64=1    ; [CPU_] 
         00000163 0600 
    2016 00000164 2942          CLRC      PAGE0,OVM             ; [CPU_] 
    2017 00000165 5616          CLRC      AMODE                 ; [CPU_] 
    2018                      .dwpsn  file "D:/work/DSP/Steering_Engine/F2833x/v141/DSP2833x_common/source/DSP2833x_DefaultIsr.c",l
TMS320C2000 Assembler PC v15.12.1 Sat Jun 25 21:32:07 2016

Tools Copyright (c) 1996-2015 Texas Instruments Incorporated
C:\Users\RJKJ_ZGH\AppData\Local\Temp\0832410                         PAGE   39

    2019 00000166 7625        ESTOP0
    2020 00000167       $C$L36:    
    2021                      .dwpsn  file "D:/work/DSP/Steering_Engine/F2833x/v141/DSP2833x_common/source/DSP2833x_DefaultIsr.c",l
    2022 00000167 6F00          B         $C$L36,UNC            ; [CPU_] |491| 
    2023                      ; branch occurs ; [] |491| 
    2024                      .dwattr $C$DW$36, DW_AT_TI_end_file("D:/work/DSP/Steering_Engine/F2833x/v141/DSP2833x_common/source/D
    2025                      .dwattr $C$DW$36, DW_AT_TI_end_line(0x1ec)
    2026                      .dwattr $C$DW$36, DW_AT_TI_end_column(0x01)
    2027                      .dwendentry
    2028                      .dwendtag $C$DW$36
    2029              
    2030 00000168               .sect   ".text:retain"
    2031                      .retain
    2032                      .retainrefs
    2033                      .global _EPWM5_INT_ISR
    2034              
    2035              $C$DW$37        .dwtag  DW_TAG_subprogram
    2036                      .dwattr $C$DW$37, DW_AT_name("EPWM5_INT_ISR")
    2037                      .dwattr $C$DW$37, DW_AT_low_pc(_EPWM5_INT_ISR)
    2038                      .dwattr $C$DW$37, DW_AT_high_pc(0x00)
    2039                      .dwattr $C$DW$37, DW_AT_TI_symbol_name("_EPWM5_INT_ISR")
    2040                      .dwattr $C$DW$37, DW_AT_external
    2041                      .dwattr $C$DW$37, DW_AT_TI_begin_file("D:/work/DSP/Steering_Engine/F2833x/v141/DSP2833x_common/source
    2042                      .dwattr $C$DW$37, DW_AT_TI_begin_line(0x1ef)
    2043                      .dwattr $C$DW$37, DW_AT_TI_begin_column(0x10)
    2044                      .dwattr $C$DW$37, DW_AT_TI_interrupt
    2045                      .dwattr $C$DW$37, DW_AT_TI_max_frame_size(-6)
    2046                      .dwpsn  file "D:/work/DSP/Steering_Engine/F2833x/v141/DSP2833x_common/source/DSP2833x_DefaultIsr.c",l
    2047              
    2048                      .dwfde $C$DW$CIE, _EPWM5_INT_ISR
    2049              
    2050              ;***************************************************************
    2051              ;* FNAME: _EPWM5_INT_ISR                FR SIZE:   4           *
    2052              ;*                                                             *
    2053              ;* FUNCTION ENVIRONMENT                                        *
    2054              ;*                                                             *
    2055              ;* FUNCTION PROPERTIES                                         *
    2056              ;*                            0 Parameter,  0 Auto,  4 SOE     *
    2057              ;***************************************************************
    2058              
    2059 00000168       _EPWM5_INT_ISR:
    2060                      .dwcfi  cfa_offset, -2
    2061                      .dwcfi  save_reg_to_mem, 26, 0
    2062 00000168 761B          ASP       ; [CPU_] 
    2063 00000169 FFF0          PUSH      RB                    ; [CPU_] 
    2064                      .dwcfi  save_reg_to_mem, 73, 2
    2065                      .dwcfi  save_reg_to_mem, 74, 3
    2066                      .dwcfi  cfa_offset, -4
    2067 0000016a E200          MOV32     *SP++,STF             ; [CPU_] 
         0000016b 00BD 
    2068                      .dwcfi  save_reg_to_mem, 39, 4
    2069                      .dwcfi  save_reg_to_mem, 40, 5
    2070                      .dwcfi  cfa_offset, -6
    2071 0000016c E630          SETFLG    RNDF32=1, RNDF64=1    ; [CPU_] 
         0000016d 0600 
TMS320C2000 Assembler PC v15.12.1 Sat Jun 25 21:32:07 2016

Tools Copyright (c) 1996-2015 Texas Instruments Incorporated
C:\Users\RJKJ_ZGH\AppData\Local\Temp\0832410                         PAGE   40

    2072 0000016e 2942          CLRC      PAGE0,OVM             ; [CPU_] 
    2073 0000016f 5616          CLRC      AMODE                 ; [CPU_] 
    2074                      .dwpsn  file "D:/work/DSP/Steering_Engine/F2833x/v141/DSP2833x_common/source/DSP2833x_DefaultIsr.c",l
    2075 00000170 7625        ESTOP0
    2076 00000171       $C$L37:    
    2077                      .dwpsn  file "D:/work/DSP/Steering_Engine/F2833x/v141/DSP2833x_common/source/DSP2833x_DefaultIsr.c",l
    2078 00000171 6F00          B         $C$L37,UNC            ; [CPU_] |505| 
    2079                      ; branch occurs ; [] |505| 
    2080                      .dwattr $C$DW$37, DW_AT_TI_end_file("D:/work/DSP/Steering_Engine/F2833x/v141/DSP2833x_common/source/D
    2081                      .dwattr $C$DW$37, DW_AT_TI_end_line(0x1fa)
    2082                      .dwattr $C$DW$37, DW_AT_TI_end_column(0x01)
    2083                      .dwendentry
    2084                      .dwendtag $C$DW$37
    2085              
    2086 00000172               .sect   ".text:retain"
    2087                      .retain
    2088                      .retainrefs
    2089                      .global _EPWM6_INT_ISR
    2090              
    2091              $C$DW$38        .dwtag  DW_TAG_subprogram
    2092                      .dwattr $C$DW$38, DW_AT_name("EPWM6_INT_ISR")
    2093                      .dwattr $C$DW$38, DW_AT_low_pc(_EPWM6_INT_ISR)
    2094                      .dwattr $C$DW$38, DW_AT_high_pc(0x00)
    2095                      .dwattr $C$DW$38, DW_AT_TI_symbol_name("_EPWM6_INT_ISR")
    2096                      .dwattr $C$DW$38, DW_AT_external
    2097                      .dwattr $C$DW$38, DW_AT_TI_begin_file("D:/work/DSP/Steering_Engine/F2833x/v141/DSP2833x_common/source
    2098                      .dwattr $C$DW$38, DW_AT_TI_begin_line(0x1fd)
    2099                      .dwattr $C$DW$38, DW_AT_TI_begin_column(0x10)
    2100                      .dwattr $C$DW$38, DW_AT_TI_interrupt
    2101                      .dwattr $C$DW$38, DW_AT_TI_max_frame_size(-6)
    2102                      .dwpsn  file "D:/work/DSP/Steering_Engine/F2833x/v141/DSP2833x_common/source/DSP2833x_DefaultIsr.c",l
    2103              
    2104                      .dwfde $C$DW$CIE, _EPWM6_INT_ISR
    2105              
    2106              ;***************************************************************
    2107              ;* FNAME: _EPWM6_INT_ISR                FR SIZE:   4           *
    2108              ;*                                                             *
    2109              ;* FUNCTION ENVIRONMENT                                        *
    2110              ;*                                                             *
    2111              ;* FUNCTION PROPERTIES                                         *
    2112              ;*                            0 Parameter,  0 Auto,  4 SOE     *
    2113              ;***************************************************************
    2114              
    2115 00000172       _EPWM6_INT_ISR:
    2116                      .dwcfi  cfa_offset, -2
    2117                      .dwcfi  save_reg_to_mem, 26, 0
    2118 00000172 761B          ASP       ; [CPU_] 
    2119 00000173 FFF0          PUSH      RB                    ; [CPU_] 
    2120                      .dwcfi  save_reg_to_mem, 73, 2
    2121                      .dwcfi  save_reg_to_mem, 74, 3
    2122                      .dwcfi  cfa_offset, -4
    2123 00000174 E200          MOV32     *SP++,STF             ; [CPU_] 
         00000175 00BD 
    2124                      .dwcfi  save_reg_to_mem, 39, 4
    2125                      .dwcfi  save_reg_to_mem, 40, 5
TMS320C2000 Assembler PC v15.12.1 Sat Jun 25 21:32:07 2016

Tools Copyright (c) 1996-2015 Texas Instruments Incorporated
C:\Users\RJKJ_ZGH\AppData\Local\Temp\0832410                         PAGE   41

    2126                      .dwcfi  cfa_offset, -6
    2127 00000176 E630          SETFLG    RNDF32=1, RNDF64=1    ; [CPU_] 
         00000177 0600 
    2128 00000178 2942          CLRC      PAGE0,OVM             ; [CPU_] 
    2129 00000179 5616          CLRC      AMODE                 ; [CPU_] 
    2130                      .dwpsn  file "D:/work/DSP/Steering_Engine/F2833x/v141/DSP2833x_common/source/DSP2833x_DefaultIsr.c",l
    2131 0000017a 7625        ESTOP0
    2132 0000017b       $C$L38:    
    2133                      .dwpsn  file "D:/work/DSP/Steering_Engine/F2833x/v141/DSP2833x_common/source/DSP2833x_DefaultIsr.c",l
    2134 0000017b 6F00          B         $C$L38,UNC            ; [CPU_] |519| 
    2135                      ; branch occurs ; [] |519| 
    2136                      .dwattr $C$DW$38, DW_AT_TI_end_file("D:/work/DSP/Steering_Engine/F2833x/v141/DSP2833x_common/source/D
    2137                      .dwattr $C$DW$38, DW_AT_TI_end_line(0x208)
    2138                      .dwattr $C$DW$38, DW_AT_TI_end_column(0x01)
    2139                      .dwendentry
    2140                      .dwendtag $C$DW$38
    2141              
    2142 0000017c               .sect   ".text:retain"
    2143                      .retain
    2144                      .retainrefs
    2145                      .global _ECAP1_INT_ISR
    2146              
    2147              $C$DW$39        .dwtag  DW_TAG_subprogram
    2148                      .dwattr $C$DW$39, DW_AT_name("ECAP1_INT_ISR")
    2149                      .dwattr $C$DW$39, DW_AT_low_pc(_ECAP1_INT_ISR)
    2150                      .dwattr $C$DW$39, DW_AT_high_pc(0x00)
    2151                      .dwattr $C$DW$39, DW_AT_TI_symbol_name("_ECAP1_INT_ISR")
    2152                      .dwattr $C$DW$39, DW_AT_external
    2153                      .dwattr $C$DW$39, DW_AT_TI_begin_file("D:/work/DSP/Steering_Engine/F2833x/v141/DSP2833x_common/source
    2154                      .dwattr $C$DW$39, DW_AT_TI_begin_line(0x213)
    2155                      .dwattr $C$DW$39, DW_AT_TI_begin_column(0x10)
    2156                      .dwattr $C$DW$39, DW_AT_TI_interrupt
    2157                      .dwattr $C$DW$39, DW_AT_TI_max_frame_size(-6)
    2158                      .dwpsn  file "D:/work/DSP/Steering_Engine/F2833x/v141/DSP2833x_common/source/DSP2833x_DefaultIsr.c",l
    2159              
    2160                      .dwfde $C$DW$CIE, _ECAP1_INT_ISR
    2161              
    2162              ;***************************************************************
    2163              ;* FNAME: _ECAP1_INT_ISR                FR SIZE:   4           *
    2164              ;*                                                             *
    2165              ;* FUNCTION ENVIRONMENT                                        *
    2166              ;*                                                             *
    2167              ;* FUNCTION PROPERTIES                                         *
    2168              ;*                            0 Parameter,  0 Auto,  4 SOE     *
    2169              ;***************************************************************
    2170              
    2171 0000017c       _ECAP1_INT_ISR:
    2172                      .dwcfi  cfa_offset, -2
    2173                      .dwcfi  save_reg_to_mem, 26, 0
    2174 0000017c 761B          ASP       ; [CPU_] 
    2175 0000017d FFF0          PUSH      RB                    ; [CPU_] 
    2176                      .dwcfi  save_reg_to_mem, 73, 2
    2177                      .dwcfi  save_reg_to_mem, 74, 3
    2178                      .dwcfi  cfa_offset, -4
    2179 0000017e E200          MOV32     *SP++,STF             ; [CPU_] 
TMS320C2000 Assembler PC v15.12.1 Sat Jun 25 21:32:07 2016

Tools Copyright (c) 1996-2015 Texas Instruments Incorporated
C:\Users\RJKJ_ZGH\AppData\Local\Temp\0832410                         PAGE   42

         0000017f 00BD 
    2180                      .dwcfi  save_reg_to_mem, 39, 4
    2181                      .dwcfi  save_reg_to_mem, 40, 5
    2182                      .dwcfi  cfa_offset, -6
    2183 00000180 E630          SETFLG    RNDF32=1, RNDF64=1    ; [CPU_] 
         00000181 0600 
    2184 00000182 2942          CLRC      PAGE0,OVM             ; [CPU_] 
    2185 00000183 5616          CLRC      AMODE                 ; [CPU_] 
    2186                      .dwpsn  file "D:/work/DSP/Steering_Engine/F2833x/v141/DSP2833x_common/source/DSP2833x_DefaultIsr.c",l
    2187 00000184 7625        ESTOP0
    2188 00000185       $C$L39:    
    2189                      .dwpsn  file "D:/work/DSP/Steering_Engine/F2833x/v141/DSP2833x_common/source/DSP2833x_DefaultIsr.c",l
    2190 00000185 6F00          B         $C$L39,UNC            ; [CPU_] |541| 
    2191                      ; branch occurs ; [] |541| 
    2192                      .dwattr $C$DW$39, DW_AT_TI_end_file("D:/work/DSP/Steering_Engine/F2833x/v141/DSP2833x_common/source/D
    2193                      .dwattr $C$DW$39, DW_AT_TI_end_line(0x21e)
    2194                      .dwattr $C$DW$39, DW_AT_TI_end_column(0x01)
    2195                      .dwendentry
    2196                      .dwendtag $C$DW$39
    2197              
    2198 00000186               .sect   ".text:retain"
    2199                      .retain
    2200                      .retainrefs
    2201                      .global _ECAP2_INT_ISR
    2202              
    2203              $C$DW$40        .dwtag  DW_TAG_subprogram
    2204                      .dwattr $C$DW$40, DW_AT_name("ECAP2_INT_ISR")
    2205                      .dwattr $C$DW$40, DW_AT_low_pc(_ECAP2_INT_ISR)
    2206                      .dwattr $C$DW$40, DW_AT_high_pc(0x00)
    2207                      .dwattr $C$DW$40, DW_AT_TI_symbol_name("_ECAP2_INT_ISR")
    2208                      .dwattr $C$DW$40, DW_AT_external
    2209                      .dwattr $C$DW$40, DW_AT_TI_begin_file("D:/work/DSP/Steering_Engine/F2833x/v141/DSP2833x_common/source
    2210                      .dwattr $C$DW$40, DW_AT_TI_begin_line(0x221)
    2211                      .dwattr $C$DW$40, DW_AT_TI_begin_column(0x10)
    2212                      .dwattr $C$DW$40, DW_AT_TI_interrupt
    2213                      .dwattr $C$DW$40, DW_AT_TI_max_frame_size(-6)
    2214                      .dwpsn  file "D:/work/DSP/Steering_Engine/F2833x/v141/DSP2833x_common/source/DSP2833x_DefaultIsr.c",l
    2215              
    2216                      .dwfde $C$DW$CIE, _ECAP2_INT_ISR
    2217              
    2218              ;***************************************************************
    2219              ;* FNAME: _ECAP2_INT_ISR                FR SIZE:   4           *
    2220              ;*                                                             *
    2221              ;* FUNCTION ENVIRONMENT                                        *
    2222              ;*                                                             *
    2223              ;* FUNCTION PROPERTIES                                         *
    2224              ;*                            0 Parameter,  0 Auto,  4 SOE     *
    2225              ;***************************************************************
    2226              
    2227 00000186       _ECAP2_INT_ISR:
    2228                      .dwcfi  cfa_offset, -2
    2229                      .dwcfi  save_reg_to_mem, 26, 0
    2230 00000186 761B          ASP       ; [CPU_] 
    2231 00000187 FFF0          PUSH      RB                    ; [CPU_] 
    2232                      .dwcfi  save_reg_to_mem, 73, 2
TMS320C2000 Assembler PC v15.12.1 Sat Jun 25 21:32:07 2016

Tools Copyright (c) 1996-2015 Texas Instruments Incorporated
C:\Users\RJKJ_ZGH\AppData\Local\Temp\0832410                         PAGE   43

    2233                      .dwcfi  save_reg_to_mem, 74, 3
    2234                      .dwcfi  cfa_offset, -4
    2235 00000188 E200          MOV32     *SP++,STF             ; [CPU_] 
         00000189 00BD 
    2236                      .dwcfi  save_reg_to_mem, 39, 4
    2237                      .dwcfi  save_reg_to_mem, 40, 5
    2238                      .dwcfi  cfa_offset, -6
    2239 0000018a E630          SETFLG    RNDF32=1, RNDF64=1    ; [CPU_] 
         0000018b 0600 
    2240 0000018c 2942          CLRC      PAGE0,OVM             ; [CPU_] 
    2241 0000018d 5616          CLRC      AMODE                 ; [CPU_] 
    2242                      .dwpsn  file "D:/work/DSP/Steering_Engine/F2833x/v141/DSP2833x_common/source/DSP2833x_DefaultIsr.c",l
    2243 0000018e 7625        ESTOP0
    2244 0000018f       $C$L40:    
    2245                      .dwpsn  file "D:/work/DSP/Steering_Engine/F2833x/v141/DSP2833x_common/source/DSP2833x_DefaultIsr.c",l
    2246 0000018f 6F00          B         $C$L40,UNC            ; [CPU_] |555| 
    2247                      ; branch occurs ; [] |555| 
    2248                      .dwattr $C$DW$40, DW_AT_TI_end_file("D:/work/DSP/Steering_Engine/F2833x/v141/DSP2833x_common/source/D
    2249                      .dwattr $C$DW$40, DW_AT_TI_end_line(0x22c)
    2250                      .dwattr $C$DW$40, DW_AT_TI_end_column(0x01)
    2251                      .dwendentry
    2252                      .dwendtag $C$DW$40
    2253              
    2254 00000190               .sect   ".text:retain"
    2255                      .retain
    2256                      .retainrefs
    2257                      .global _ECAP3_INT_ISR
    2258              
    2259              $C$DW$41        .dwtag  DW_TAG_subprogram
    2260                      .dwattr $C$DW$41, DW_AT_name("ECAP3_INT_ISR")
    2261                      .dwattr $C$DW$41, DW_AT_low_pc(_ECAP3_INT_ISR)
    2262                      .dwattr $C$DW$41, DW_AT_high_pc(0x00)
    2263                      .dwattr $C$DW$41, DW_AT_TI_symbol_name("_ECAP3_INT_ISR")
    2264                      .dwattr $C$DW$41, DW_AT_external
    2265                      .dwattr $C$DW$41, DW_AT_TI_begin_file("D:/work/DSP/Steering_Engine/F2833x/v141/DSP2833x_common/source
    2266                      .dwattr $C$DW$41, DW_AT_TI_begin_line(0x22f)
    2267                      .dwattr $C$DW$41, DW_AT_TI_begin_column(0x10)
    2268                      .dwattr $C$DW$41, DW_AT_TI_interrupt
    2269                      .dwattr $C$DW$41, DW_AT_TI_max_frame_size(-6)
    2270                      .dwpsn  file "D:/work/DSP/Steering_Engine/F2833x/v141/DSP2833x_common/source/DSP2833x_DefaultIsr.c",l
    2271              
    2272                      .dwfde $C$DW$CIE, _ECAP3_INT_ISR
    2273              
    2274              ;***************************************************************
    2275              ;* FNAME: _ECAP3_INT_ISR                FR SIZE:   4           *
    2276              ;*                                                             *
    2277              ;* FUNCTION ENVIRONMENT                                        *
    2278              ;*                                                             *
    2279              ;* FUNCTION PROPERTIES                                         *
    2280              ;*                            0 Parameter,  0 Auto,  4 SOE     *
    2281              ;***************************************************************
    2282              
    2283 00000190       _ECAP3_INT_ISR:
    2284                      .dwcfi  cfa_offset, -2
    2285                      .dwcfi  save_reg_to_mem, 26, 0
TMS320C2000 Assembler PC v15.12.1 Sat Jun 25 21:32:07 2016

Tools Copyright (c) 1996-2015 Texas Instruments Incorporated
C:\Users\RJKJ_ZGH\AppData\Local\Temp\0832410                         PAGE   44

    2286 00000190 761B          ASP       ; [CPU_] 
    2287 00000191 FFF0          PUSH      RB                    ; [CPU_] 
    2288                      .dwcfi  save_reg_to_mem, 73, 2
    2289                      .dwcfi  save_reg_to_mem, 74, 3
    2290                      .dwcfi  cfa_offset, -4
    2291 00000192 E200          MOV32     *SP++,STF             ; [CPU_] 
         00000193 00BD 
    2292                      .dwcfi  save_reg_to_mem, 39, 4
    2293                      .dwcfi  save_reg_to_mem, 40, 5
    2294                      .dwcfi  cfa_offset, -6
    2295 00000194 E630          SETFLG    RNDF32=1, RNDF64=1    ; [CPU_] 
         00000195 0600 
    2296 00000196 2942          CLRC      PAGE0,OVM             ; [CPU_] 
    2297 00000197 5616          CLRC      AMODE                 ; [CPU_] 
    2298                      .dwpsn  file "D:/work/DSP/Steering_Engine/F2833x/v141/DSP2833x_common/source/DSP2833x_DefaultIsr.c",l
    2299 00000198 7625        ESTOP0
    2300 00000199       $C$L41:    
    2301                      .dwpsn  file "D:/work/DSP/Steering_Engine/F2833x/v141/DSP2833x_common/source/DSP2833x_DefaultIsr.c",l
    2302 00000199 6F00          B         $C$L41,UNC            ; [CPU_] |569| 
    2303                      ; branch occurs ; [] |569| 
    2304                      .dwattr $C$DW$41, DW_AT_TI_end_file("D:/work/DSP/Steering_Engine/F2833x/v141/DSP2833x_common/source/D
    2305                      .dwattr $C$DW$41, DW_AT_TI_end_line(0x23a)
    2306                      .dwattr $C$DW$41, DW_AT_TI_end_column(0x01)
    2307                      .dwendentry
    2308                      .dwendtag $C$DW$41
    2309              
    2310 0000019a               .sect   ".text:retain"
    2311                      .retain
    2312                      .retainrefs
    2313                      .global _ECAP4_INT_ISR
    2314              
    2315              $C$DW$42        .dwtag  DW_TAG_subprogram
    2316                      .dwattr $C$DW$42, DW_AT_name("ECAP4_INT_ISR")
    2317                      .dwattr $C$DW$42, DW_AT_low_pc(_ECAP4_INT_ISR)
    2318                      .dwattr $C$DW$42, DW_AT_high_pc(0x00)
    2319                      .dwattr $C$DW$42, DW_AT_TI_symbol_name("_ECAP4_INT_ISR")
    2320                      .dwattr $C$DW$42, DW_AT_external
    2321                      .dwattr $C$DW$42, DW_AT_TI_begin_file("D:/work/DSP/Steering_Engine/F2833x/v141/DSP2833x_common/source
    2322                      .dwattr $C$DW$42, DW_AT_TI_begin_line(0x23d)
    2323                      .dwattr $C$DW$42, DW_AT_TI_begin_column(0x10)
    2324                      .dwattr $C$DW$42, DW_AT_TI_interrupt
    2325                      .dwattr $C$DW$42, DW_AT_TI_max_frame_size(-6)
    2326                      .dwpsn  file "D:/work/DSP/Steering_Engine/F2833x/v141/DSP2833x_common/source/DSP2833x_DefaultIsr.c",l
    2327              
    2328                      .dwfde $C$DW$CIE, _ECAP4_INT_ISR
    2329              
    2330              ;***************************************************************
    2331              ;* FNAME: _ECAP4_INT_ISR                FR SIZE:   4           *
    2332              ;*                                                             *
    2333              ;* FUNCTION ENVIRONMENT                                        *
    2334              ;*                                                             *
    2335              ;* FUNCTION PROPERTIES                                         *
    2336              ;*                            0 Parameter,  0 Auto,  4 SOE     *
    2337              ;***************************************************************
    2338              
TMS320C2000 Assembler PC v15.12.1 Sat Jun 25 21:32:07 2016

Tools Copyright (c) 1996-2015 Texas Instruments Incorporated
C:\Users\RJKJ_ZGH\AppData\Local\Temp\0832410                         PAGE   45

    2339 0000019a       _ECAP4_INT_ISR:
    2340                      .dwcfi  cfa_offset, -2
    2341                      .dwcfi  save_reg_to_mem, 26, 0
    2342 0000019a 761B          ASP       ; [CPU_] 
    2343 0000019b FFF0          PUSH      RB                    ; [CPU_] 
    2344                      .dwcfi  save_reg_to_mem, 73, 2
    2345                      .dwcfi  save_reg_to_mem, 74, 3
    2346                      .dwcfi  cfa_offset, -4
    2347 0000019c E200          MOV32     *SP++,STF             ; [CPU_] 
         0000019d 00BD 
    2348                      .dwcfi  save_reg_to_mem, 39, 4
    2349                      .dwcfi  save_reg_to_mem, 40, 5
    2350                      .dwcfi  cfa_offset, -6
    2351 0000019e E630          SETFLG    RNDF32=1, RNDF64=1    ; [CPU_] 
         0000019f 0600 
    2352 000001a0 2942          CLRC      PAGE0,OVM             ; [CPU_] 
    2353 000001a1 5616          CLRC      AMODE                 ; [CPU_] 
    2354                      .dwpsn  file "D:/work/DSP/Steering_Engine/F2833x/v141/DSP2833x_common/source/DSP2833x_DefaultIsr.c",l
    2355 000001a2 7625        ESTOP0
    2356 000001a3       $C$L42:    
    2357                      .dwpsn  file "D:/work/DSP/Steering_Engine/F2833x/v141/DSP2833x_common/source/DSP2833x_DefaultIsr.c",l
    2358 000001a3 6F00          B         $C$L42,UNC            ; [CPU_] |583| 
    2359                      ; branch occurs ; [] |583| 
    2360                      .dwattr $C$DW$42, DW_AT_TI_end_file("D:/work/DSP/Steering_Engine/F2833x/v141/DSP2833x_common/source/D
    2361                      .dwattr $C$DW$42, DW_AT_TI_end_line(0x248)
    2362                      .dwattr $C$DW$42, DW_AT_TI_end_column(0x01)
    2363                      .dwendentry
    2364                      .dwendtag $C$DW$42
    2365              
    2366 000001a4               .sect   ".text:retain"
    2367                      .retain
    2368                      .retainrefs
    2369                      .global _ECAP5_INT_ISR
    2370              
    2371              $C$DW$43        .dwtag  DW_TAG_subprogram
    2372                      .dwattr $C$DW$43, DW_AT_name("ECAP5_INT_ISR")
    2373                      .dwattr $C$DW$43, DW_AT_low_pc(_ECAP5_INT_ISR)
    2374                      .dwattr $C$DW$43, DW_AT_high_pc(0x00)
    2375                      .dwattr $C$DW$43, DW_AT_TI_symbol_name("_ECAP5_INT_ISR")
    2376                      .dwattr $C$DW$43, DW_AT_external
    2377                      .dwattr $C$DW$43, DW_AT_TI_begin_file("D:/work/DSP/Steering_Engine/F2833x/v141/DSP2833x_common/source
    2378                      .dwattr $C$DW$43, DW_AT_TI_begin_line(0x24b)
    2379                      .dwattr $C$DW$43, DW_AT_TI_begin_column(0x10)
    2380                      .dwattr $C$DW$43, DW_AT_TI_interrupt
    2381                      .dwattr $C$DW$43, DW_AT_TI_max_frame_size(-6)
    2382                      .dwpsn  file "D:/work/DSP/Steering_Engine/F2833x/v141/DSP2833x_common/source/DSP2833x_DefaultIsr.c",l
    2383              
    2384                      .dwfde $C$DW$CIE, _ECAP5_INT_ISR
    2385              
    2386              ;***************************************************************
    2387              ;* FNAME: _ECAP5_INT_ISR                FR SIZE:   4           *
    2388              ;*                                                             *
    2389              ;* FUNCTION ENVIRONMENT                                        *
    2390              ;*                                                             *
    2391              ;* FUNCTION PROPERTIES                                         *
TMS320C2000 Assembler PC v15.12.1 Sat Jun 25 21:32:07 2016

Tools Copyright (c) 1996-2015 Texas Instruments Incorporated
C:\Users\RJKJ_ZGH\AppData\Local\Temp\0832410                         PAGE   46

    2392              ;*                            0 Parameter,  0 Auto,  4 SOE     *
    2393              ;***************************************************************
    2394              
    2395 000001a4       _ECAP5_INT_ISR:
    2396                      .dwcfi  cfa_offset, -2
    2397                      .dwcfi  save_reg_to_mem, 26, 0
    2398 000001a4 761B          ASP       ; [CPU_] 
    2399 000001a5 FFF0          PUSH      RB                    ; [CPU_] 
    2400                      .dwcfi  save_reg_to_mem, 73, 2
    2401                      .dwcfi  save_reg_to_mem, 74, 3
    2402                      .dwcfi  cfa_offset, -4
    2403 000001a6 E200          MOV32     *SP++,STF             ; [CPU_] 
         000001a7 00BD 
    2404                      .dwcfi  save_reg_to_mem, 39, 4
    2405                      .dwcfi  save_reg_to_mem, 40, 5
    2406                      .dwcfi  cfa_offset, -6
    2407 000001a8 E630          SETFLG    RNDF32=1, RNDF64=1    ; [CPU_] 
         000001a9 0600 
    2408 000001aa 2942          CLRC      PAGE0,OVM             ; [CPU_] 
    2409 000001ab 5616          CLRC      AMODE                 ; [CPU_] 
    2410                      .dwpsn  file "D:/work/DSP/Steering_Engine/F2833x/v141/DSP2833x_common/source/DSP2833x_DefaultIsr.c",l
    2411 000001ac 7625        ESTOP0
    2412 000001ad       $C$L43:    
    2413                      .dwpsn  file "D:/work/DSP/Steering_Engine/F2833x/v141/DSP2833x_common/source/DSP2833x_DefaultIsr.c",l
    2414 000001ad 6F00          B         $C$L43,UNC            ; [CPU_] |597| 
    2415                      ; branch occurs ; [] |597| 
    2416                      .dwattr $C$DW$43, DW_AT_TI_end_file("D:/work/DSP/Steering_Engine/F2833x/v141/DSP2833x_common/source/D
    2417                      .dwattr $C$DW$43, DW_AT_TI_end_line(0x256)
    2418                      .dwattr $C$DW$43, DW_AT_TI_end_column(0x01)
    2419                      .dwendentry
    2420                      .dwendtag $C$DW$43
    2421              
    2422 000001ae               .sect   ".text:retain"
    2423                      .retain
    2424                      .retainrefs
    2425                      .global _ECAP6_INT_ISR
    2426              
    2427              $C$DW$44        .dwtag  DW_TAG_subprogram
    2428                      .dwattr $C$DW$44, DW_AT_name("ECAP6_INT_ISR")
    2429                      .dwattr $C$DW$44, DW_AT_low_pc(_ECAP6_INT_ISR)
    2430                      .dwattr $C$DW$44, DW_AT_high_pc(0x00)
    2431                      .dwattr $C$DW$44, DW_AT_TI_symbol_name("_ECAP6_INT_ISR")
    2432                      .dwattr $C$DW$44, DW_AT_external
    2433                      .dwattr $C$DW$44, DW_AT_TI_begin_file("D:/work/DSP/Steering_Engine/F2833x/v141/DSP2833x_common/source
    2434                      .dwattr $C$DW$44, DW_AT_TI_begin_line(0x258)
    2435                      .dwattr $C$DW$44, DW_AT_TI_begin_column(0x10)
    2436                      .dwattr $C$DW$44, DW_AT_TI_interrupt
    2437                      .dwattr $C$DW$44, DW_AT_TI_max_frame_size(-6)
    2438                      .dwpsn  file "D:/work/DSP/Steering_Engine/F2833x/v141/DSP2833x_common/source/DSP2833x_DefaultIsr.c",l
    2439              
    2440                      .dwfde $C$DW$CIE, _ECAP6_INT_ISR
    2441              
    2442              ;***************************************************************
    2443              ;* FNAME: _ECAP6_INT_ISR                FR SIZE:   4           *
    2444              ;*                                                             *
TMS320C2000 Assembler PC v15.12.1 Sat Jun 25 21:32:07 2016

Tools Copyright (c) 1996-2015 Texas Instruments Incorporated
C:\Users\RJKJ_ZGH\AppData\Local\Temp\0832410                         PAGE   47

    2445              ;* FUNCTION ENVIRONMENT                                        *
    2446              ;*                                                             *
    2447              ;* FUNCTION PROPERTIES                                         *
    2448              ;*                            0 Parameter,  0 Auto,  4 SOE     *
    2449              ;***************************************************************
    2450              
    2451 000001ae       _ECAP6_INT_ISR:
    2452                      .dwcfi  cfa_offset, -2
    2453                      .dwcfi  save_reg_to_mem, 26, 0
    2454 000001ae 761B          ASP       ; [CPU_] 
    2455 000001af FFF0          PUSH      RB                    ; [CPU_] 
    2456                      .dwcfi  save_reg_to_mem, 73, 2
    2457                      .dwcfi  save_reg_to_mem, 74, 3
    2458                      .dwcfi  cfa_offset, -4
    2459 000001b0 E200          MOV32     *SP++,STF             ; [CPU_] 
         000001b1 00BD 
    2460                      .dwcfi  save_reg_to_mem, 39, 4
    2461                      .dwcfi  save_reg_to_mem, 40, 5
    2462                      .dwcfi  cfa_offset, -6
    2463 000001b2 E630          SETFLG    RNDF32=1, RNDF64=1    ; [CPU_] 
         000001b3 0600 
    2464 000001b4 2942          CLRC      PAGE0,OVM             ; [CPU_] 
    2465 000001b5 5616          CLRC      AMODE                 ; [CPU_] 
    2466                      .dwpsn  file "D:/work/DSP/Steering_Engine/F2833x/v141/DSP2833x_common/source/DSP2833x_DefaultIsr.c",l
    2467 000001b6 7625        ESTOP0
    2468 000001b7       $C$L44:    
    2469                      .dwpsn  file "D:/work/DSP/Steering_Engine/F2833x/v141/DSP2833x_common/source/DSP2833x_DefaultIsr.c",l
    2470 000001b7 6F00          B         $C$L44,UNC            ; [CPU_] |610| 
    2471                      ; branch occurs ; [] |610| 
    2472                      .dwattr $C$DW$44, DW_AT_TI_end_file("D:/work/DSP/Steering_Engine/F2833x/v141/DSP2833x_common/source/D
    2473                      .dwattr $C$DW$44, DW_AT_TI_end_line(0x263)
    2474                      .dwattr $C$DW$44, DW_AT_TI_end_column(0x01)
    2475                      .dwendentry
    2476                      .dwendtag $C$DW$44
    2477              
    2478 000001b8               .sect   ".text:retain"
    2479                      .retain
    2480                      .retainrefs
    2481                      .global _EQEP1_INT_ISR
    2482              
    2483              $C$DW$45        .dwtag  DW_TAG_subprogram
    2484                      .dwattr $C$DW$45, DW_AT_name("EQEP1_INT_ISR")
    2485                      .dwattr $C$DW$45, DW_AT_low_pc(_EQEP1_INT_ISR)
    2486                      .dwattr $C$DW$45, DW_AT_high_pc(0x00)
    2487                      .dwattr $C$DW$45, DW_AT_TI_symbol_name("_EQEP1_INT_ISR")
    2488                      .dwattr $C$DW$45, DW_AT_external
    2489                      .dwattr $C$DW$45, DW_AT_TI_begin_file("D:/work/DSP/Steering_Engine/F2833x/v141/DSP2833x_common/source
    2490                      .dwattr $C$DW$45, DW_AT_TI_begin_line(0x26c)
    2491                      .dwattr $C$DW$45, DW_AT_TI_begin_column(0x10)
    2492                      .dwattr $C$DW$45, DW_AT_TI_interrupt
    2493                      .dwattr $C$DW$45, DW_AT_TI_max_frame_size(-6)
    2494                      .dwpsn  file "D:/work/DSP/Steering_Engine/F2833x/v141/DSP2833x_common/source/DSP2833x_DefaultIsr.c",l
    2495              
    2496                      .dwfde $C$DW$CIE, _EQEP1_INT_ISR
    2497              
TMS320C2000 Assembler PC v15.12.1 Sat Jun 25 21:32:07 2016

Tools Copyright (c) 1996-2015 Texas Instruments Incorporated
C:\Users\RJKJ_ZGH\AppData\Local\Temp\0832410                         PAGE   48

    2498              ;***************************************************************
    2499              ;* FNAME: _EQEP1_INT_ISR                FR SIZE:   4           *
    2500              ;*                                                             *
    2501              ;* FUNCTION ENVIRONMENT                                        *
    2502              ;*                                                             *
    2503              ;* FUNCTION PROPERTIES                                         *
    2504              ;*                            0 Parameter,  0 Auto,  4 SOE     *
    2505              ;***************************************************************
    2506              
    2507 000001b8       _EQEP1_INT_ISR:
    2508                      .dwcfi  cfa_offset, -2
    2509                      .dwcfi  save_reg_to_mem, 26, 0
    2510 000001b8 761B          ASP       ; [CPU_] 
    2511 000001b9 FFF0          PUSH      RB                    ; [CPU_] 
    2512                      .dwcfi  save_reg_to_mem, 73, 2
    2513                      .dwcfi  save_reg_to_mem, 74, 3
    2514                      .dwcfi  cfa_offset, -4
    2515 000001ba E200          MOV32     *SP++,STF             ; [CPU_] 
         000001bb 00BD 
    2516                      .dwcfi  save_reg_to_mem, 39, 4
    2517                      .dwcfi  save_reg_to_mem, 40, 5
    2518                      .dwcfi  cfa_offset, -6
    2519 000001bc E630          SETFLG    RNDF32=1, RNDF64=1    ; [CPU_] 
         000001bd 0600 
    2520 000001be 2942          CLRC      PAGE0,OVM             ; [CPU_] 
    2521 000001bf 5616          CLRC      AMODE                 ; [CPU_] 
    2522                      .dwpsn  file "D:/work/DSP/Steering_Engine/F2833x/v141/DSP2833x_common/source/DSP2833x_DefaultIsr.c",l
    2523 000001c0 7625        ESTOP0
    2524 000001c1       $C$L45:    
    2525                      .dwpsn  file "D:/work/DSP/Steering_Engine/F2833x/v141/DSP2833x_common/source/DSP2833x_DefaultIsr.c",l
    2526 000001c1 6F00          B         $C$L45,UNC            ; [CPU_] |630| 
    2527                      ; branch occurs ; [] |630| 
    2528                      .dwattr $C$DW$45, DW_AT_TI_end_file("D:/work/DSP/Steering_Engine/F2833x/v141/DSP2833x_common/source/D
    2529                      .dwattr $C$DW$45, DW_AT_TI_end_line(0x277)
    2530                      .dwattr $C$DW$45, DW_AT_TI_end_column(0x01)
    2531                      .dwendentry
    2532                      .dwendtag $C$DW$45
    2533              
    2534 000001c2               .sect   ".text:retain"
    2535                      .retain
    2536                      .retainrefs
    2537                      .global _EQEP2_INT_ISR
    2538              
    2539              $C$DW$46        .dwtag  DW_TAG_subprogram
    2540                      .dwattr $C$DW$46, DW_AT_name("EQEP2_INT_ISR")
    2541                      .dwattr $C$DW$46, DW_AT_low_pc(_EQEP2_INT_ISR)
    2542                      .dwattr $C$DW$46, DW_AT_high_pc(0x00)
    2543                      .dwattr $C$DW$46, DW_AT_TI_symbol_name("_EQEP2_INT_ISR")
    2544                      .dwattr $C$DW$46, DW_AT_external
    2545                      .dwattr $C$DW$46, DW_AT_TI_begin_file("D:/work/DSP/Steering_Engine/F2833x/v141/DSP2833x_common/source
    2546                      .dwattr $C$DW$46, DW_AT_TI_begin_line(0x27a)
    2547                      .dwattr $C$DW$46, DW_AT_TI_begin_column(0x10)
    2548                      .dwattr $C$DW$46, DW_AT_TI_interrupt
    2549                      .dwattr $C$DW$46, DW_AT_TI_max_frame_size(-6)
    2550                      .dwpsn  file "D:/work/DSP/Steering_Engine/F2833x/v141/DSP2833x_common/source/DSP2833x_DefaultIsr.c",l
TMS320C2000 Assembler PC v15.12.1 Sat Jun 25 21:32:07 2016

Tools Copyright (c) 1996-2015 Texas Instruments Incorporated
C:\Users\RJKJ_ZGH\AppData\Local\Temp\0832410                         PAGE   49

    2551              
    2552                      .dwfde $C$DW$CIE, _EQEP2_INT_ISR
    2553              
    2554              ;***************************************************************
    2555              ;* FNAME: _EQEP2_INT_ISR                FR SIZE:   4           *
    2556              ;*                                                             *
    2557              ;* FUNCTION ENVIRONMENT                                        *
    2558              ;*                                                             *
    2559              ;* FUNCTION PROPERTIES                                         *
    2560              ;*                            0 Parameter,  0 Auto,  4 SOE     *
    2561              ;***************************************************************
    2562              
    2563 000001c2       _EQEP2_INT_ISR:
    2564                      .dwcfi  cfa_offset, -2
    2565                      .dwcfi  save_reg_to_mem, 26, 0
    2566 000001c2 761B          ASP       ; [CPU_] 
    2567 000001c3 FFF0          PUSH      RB                    ; [CPU_] 
    2568                      .dwcfi  save_reg_to_mem, 73, 2
    2569                      .dwcfi  save_reg_to_mem, 74, 3
    2570                      .dwcfi  cfa_offset, -4
    2571 000001c4 E200          MOV32     *SP++,STF             ; [CPU_] 
         000001c5 00BD 
    2572                      .dwcfi  save_reg_to_mem, 39, 4
    2573                      .dwcfi  save_reg_to_mem, 40, 5
    2574                      .dwcfi  cfa_offset, -6
    2575 000001c6 E630          SETFLG    RNDF32=1, RNDF64=1    ; [CPU_] 
         000001c7 0600 
    2576 000001c8 2942          CLRC      PAGE0,OVM             ; [CPU_] 
    2577 000001c9 5616          CLRC      AMODE                 ; [CPU_] 
    2578                      .dwpsn  file "D:/work/DSP/Steering_Engine/F2833x/v141/DSP2833x_common/source/DSP2833x_DefaultIsr.c",l
    2579 000001ca 7625        ESTOP0
    2580 000001cb       $C$L46:    
    2581                      .dwpsn  file "D:/work/DSP/Steering_Engine/F2833x/v141/DSP2833x_common/source/DSP2833x_DefaultIsr.c",l
    2582 000001cb 6F00          B         $C$L46,UNC            ; [CPU_] |644| 
    2583                      ; branch occurs ; [] |644| 
    2584                      .dwattr $C$DW$46, DW_AT_TI_end_file("D:/work/DSP/Steering_Engine/F2833x/v141/DSP2833x_common/source/D
    2585                      .dwattr $C$DW$46, DW_AT_TI_end_line(0x285)
    2586                      .dwattr $C$DW$46, DW_AT_TI_end_column(0x01)
    2587                      .dwendentry
    2588                      .dwendtag $C$DW$46
    2589              
    2590 000001cc               .sect   ".text:retain"
    2591                      .retain
    2592                      .retainrefs
    2593                      .global _SPIRXINTA_ISR
    2594              
    2595              $C$DW$47        .dwtag  DW_TAG_subprogram
    2596                      .dwattr $C$DW$47, DW_AT_name("SPIRXINTA_ISR")
    2597                      .dwattr $C$DW$47, DW_AT_low_pc(_SPIRXINTA_ISR)
    2598                      .dwattr $C$DW$47, DW_AT_high_pc(0x00)
    2599                      .dwattr $C$DW$47, DW_AT_TI_symbol_name("_SPIRXINTA_ISR")
    2600                      .dwattr $C$DW$47, DW_AT_external
    2601                      .dwattr $C$DW$47, DW_AT_TI_begin_file("D:/work/DSP/Steering_Engine/F2833x/v141/DSP2833x_common/source
    2602                      .dwattr $C$DW$47, DW_AT_TI_begin_line(0x293)
    2603                      .dwattr $C$DW$47, DW_AT_TI_begin_column(0x10)
TMS320C2000 Assembler PC v15.12.1 Sat Jun 25 21:32:07 2016

Tools Copyright (c) 1996-2015 Texas Instruments Incorporated
C:\Users\RJKJ_ZGH\AppData\Local\Temp\0832410                         PAGE   50

    2604                      .dwattr $C$DW$47, DW_AT_TI_interrupt
    2605                      .dwattr $C$DW$47, DW_AT_TI_max_frame_size(-6)
    2606                      .dwpsn  file "D:/work/DSP/Steering_Engine/F2833x/v141/DSP2833x_common/source/DSP2833x_DefaultIsr.c",l
    2607              
    2608                      .dwfde $C$DW$CIE, _SPIRXINTA_ISR
    2609              
    2610              ;***************************************************************
    2611              ;* FNAME: _SPIRXINTA_ISR                FR SIZE:   4           *
    2612              ;*                                                             *
    2613              ;* FUNCTION ENVIRONMENT                                        *
    2614              ;*                                                             *
    2615              ;* FUNCTION PROPERTIES                                         *
    2616              ;*                            0 Parameter,  0 Auto,  4 SOE     *
    2617              ;***************************************************************
    2618              
    2619 000001cc       _SPIRXINTA_ISR:
    2620                      .dwcfi  cfa_offset, -2
    2621                      .dwcfi  save_reg_to_mem, 26, 0
    2622 000001cc 761B          ASP       ; [CPU_] 
    2623 000001cd FFF0          PUSH      RB                    ; [CPU_] 
    2624                      .dwcfi  save_reg_to_mem, 73, 2
    2625                      .dwcfi  save_reg_to_mem, 74, 3
    2626                      .dwcfi  cfa_offset, -4
    2627 000001ce E200          MOV32     *SP++,STF             ; [CPU_] 
         000001cf 00BD 
    2628                      .dwcfi  save_reg_to_mem, 39, 4
    2629                      .dwcfi  save_reg_to_mem, 40, 5
    2630                      .dwcfi  cfa_offset, -6
    2631 000001d0 E630          SETFLG    RNDF32=1, RNDF64=1    ; [CPU_] 
         000001d1 0600 
    2632 000001d2 2942          CLRC      PAGE0,OVM             ; [CPU_] 
    2633 000001d3 5616          CLRC      AMODE                 ; [CPU_] 
    2634                      .dwpsn  file "D:/work/DSP/Steering_Engine/F2833x/v141/DSP2833x_common/source/DSP2833x_DefaultIsr.c",l
    2635 000001d4 7625        ESTOP0
    2636 000001d5       $C$L47:    
    2637                      .dwpsn  file "D:/work/DSP/Steering_Engine/F2833x/v141/DSP2833x_common/source/DSP2833x_DefaultIsr.c",l
    2638 000001d5 6F00          B         $C$L47,UNC            ; [CPU_] |669| 
    2639                      ; branch occurs ; [] |669| 
    2640                      .dwattr $C$DW$47, DW_AT_TI_end_file("D:/work/DSP/Steering_Engine/F2833x/v141/DSP2833x_common/source/D
    2641                      .dwattr $C$DW$47, DW_AT_TI_end_line(0x29e)
    2642                      .dwattr $C$DW$47, DW_AT_TI_end_column(0x01)
    2643                      .dwendentry
    2644                      .dwendtag $C$DW$47
    2645              
    2646 000001d6               .sect   ".text:retain"
    2647                      .retain
    2648                      .retainrefs
    2649                      .global _SPITXINTA_ISR
    2650              
    2651              $C$DW$48        .dwtag  DW_TAG_subprogram
    2652                      .dwattr $C$DW$48, DW_AT_name("SPITXINTA_ISR")
    2653                      .dwattr $C$DW$48, DW_AT_low_pc(_SPITXINTA_ISR)
    2654                      .dwattr $C$DW$48, DW_AT_high_pc(0x00)
    2655                      .dwattr $C$DW$48, DW_AT_TI_symbol_name("_SPITXINTA_ISR")
    2656                      .dwattr $C$DW$48, DW_AT_external
TMS320C2000 Assembler PC v15.12.1 Sat Jun 25 21:32:07 2016

Tools Copyright (c) 1996-2015 Texas Instruments Incorporated
C:\Users\RJKJ_ZGH\AppData\Local\Temp\0832410                         PAGE   51

    2657                      .dwattr $C$DW$48, DW_AT_TI_begin_file("D:/work/DSP/Steering_Engine/F2833x/v141/DSP2833x_common/source
    2658                      .dwattr $C$DW$48, DW_AT_TI_begin_line(0x2a1)
    2659                      .dwattr $C$DW$48, DW_AT_TI_begin_column(0x10)
    2660                      .dwattr $C$DW$48, DW_AT_TI_interrupt
    2661                      .dwattr $C$DW$48, DW_AT_TI_max_frame_size(-6)
    2662                      .dwpsn  file "D:/work/DSP/Steering_Engine/F2833x/v141/DSP2833x_common/source/DSP2833x_DefaultIsr.c",l
    2663              
    2664                      .dwfde $C$DW$CIE, _SPITXINTA_ISR
    2665              
    2666              ;***************************************************************
    2667              ;* FNAME: _SPITXINTA_ISR                FR SIZE:   4           *
    2668              ;*                                                             *
    2669              ;* FUNCTION ENVIRONMENT                                        *
    2670              ;*                                                             *
    2671              ;* FUNCTION PROPERTIES                                         *
    2672              ;*                            0 Parameter,  0 Auto,  4 SOE     *
    2673              ;***************************************************************
    2674              
    2675 000001d6       _SPITXINTA_ISR:
    2676                      .dwcfi  cfa_offset, -2
    2677                      .dwcfi  save_reg_to_mem, 26, 0
    2678 000001d6 761B          ASP       ; [CPU_] 
    2679 000001d7 FFF0          PUSH      RB                    ; [CPU_] 
    2680                      .dwcfi  save_reg_to_mem, 73, 2
    2681                      .dwcfi  save_reg_to_mem, 74, 3
    2682                      .dwcfi  cfa_offset, -4
    2683 000001d8 E200          MOV32     *SP++,STF             ; [CPU_] 
         000001d9 00BD 
    2684                      .dwcfi  save_reg_to_mem, 39, 4
    2685                      .dwcfi  save_reg_to_mem, 40, 5
    2686                      .dwcfi  cfa_offset, -6
    2687 000001da E630          SETFLG    RNDF32=1, RNDF64=1    ; [CPU_] 
         000001db 0600 
    2688 000001dc 2942          CLRC      PAGE0,OVM             ; [CPU_] 
    2689 000001dd 5616          CLRC      AMODE                 ; [CPU_] 
    2690                      .dwpsn  file "D:/work/DSP/Steering_Engine/F2833x/v141/DSP2833x_common/source/DSP2833x_DefaultIsr.c",l
    2691 000001de 7625        ESTOP0
    2692 000001df       $C$L48:    
    2693                      .dwpsn  file "D:/work/DSP/Steering_Engine/F2833x/v141/DSP2833x_common/source/DSP2833x_DefaultIsr.c",l
    2694 000001df 6F00          B         $C$L48,UNC            ; [CPU_] |683| 
    2695                      ; branch occurs ; [] |683| 
    2696                      .dwattr $C$DW$48, DW_AT_TI_end_file("D:/work/DSP/Steering_Engine/F2833x/v141/DSP2833x_common/source/D
    2697                      .dwattr $C$DW$48, DW_AT_TI_end_line(0x2ac)
    2698                      .dwattr $C$DW$48, DW_AT_TI_end_column(0x01)
    2699                      .dwendentry
    2700                      .dwendtag $C$DW$48
    2701              
    2702 000001e0               .sect   ".text:retain"
    2703                      .retain
    2704                      .retainrefs
    2705                      .global _MRINTB_ISR
    2706              
    2707              $C$DW$49        .dwtag  DW_TAG_subprogram
    2708                      .dwattr $C$DW$49, DW_AT_name("MRINTB_ISR")
    2709                      .dwattr $C$DW$49, DW_AT_low_pc(_MRINTB_ISR)
TMS320C2000 Assembler PC v15.12.1 Sat Jun 25 21:32:07 2016

Tools Copyright (c) 1996-2015 Texas Instruments Incorporated
C:\Users\RJKJ_ZGH\AppData\Local\Temp\0832410                         PAGE   52

    2710                      .dwattr $C$DW$49, DW_AT_high_pc(0x00)
    2711                      .dwattr $C$DW$49, DW_AT_TI_symbol_name("_MRINTB_ISR")
    2712                      .dwattr $C$DW$49, DW_AT_external
    2713                      .dwattr $C$DW$49, DW_AT_TI_begin_file("D:/work/DSP/Steering_Engine/F2833x/v141/DSP2833x_common/source
    2714                      .dwattr $C$DW$49, DW_AT_TI_begin_line(0x2af)
    2715                      .dwattr $C$DW$49, DW_AT_TI_begin_column(0x10)
    2716                      .dwattr $C$DW$49, DW_AT_TI_interrupt
    2717                      .dwattr $C$DW$49, DW_AT_TI_max_frame_size(-6)
    2718                      .dwpsn  file "D:/work/DSP/Steering_Engine/F2833x/v141/DSP2833x_common/source/DSP2833x_DefaultIsr.c",l
    2719              
    2720                      .dwfde $C$DW$CIE, _MRINTB_ISR
    2721              
    2722              ;***************************************************************
    2723              ;* FNAME: _MRINTB_ISR                   FR SIZE:   4           *
    2724              ;*                                                             *
    2725              ;* FUNCTION ENVIRONMENT                                        *
    2726              ;*                                                             *
    2727              ;* FUNCTION PROPERTIES                                         *
    2728              ;*                            0 Parameter,  0 Auto,  4 SOE     *
    2729              ;***************************************************************
    2730              
    2731 000001e0       _MRINTB_ISR:
    2732                      .dwcfi  cfa_offset, -2
    2733                      .dwcfi  save_reg_to_mem, 26, 0
    2734 000001e0 761B          ASP       ; [CPU_] 
    2735 000001e1 FFF0          PUSH      RB                    ; [CPU_] 
    2736                      .dwcfi  save_reg_to_mem, 73, 2
    2737                      .dwcfi  save_reg_to_mem, 74, 3
    2738                      .dwcfi  cfa_offset, -4
    2739 000001e2 E200          MOV32     *SP++,STF             ; [CPU_] 
         000001e3 00BD 
    2740                      .dwcfi  save_reg_to_mem, 39, 4
    2741                      .dwcfi  save_reg_to_mem, 40, 5
    2742                      .dwcfi  cfa_offset, -6
    2743 000001e4 E630          SETFLG    RNDF32=1, RNDF64=1    ; [CPU_] 
         000001e5 0600 
    2744 000001e6 2942          CLRC      PAGE0,OVM             ; [CPU_] 
    2745 000001e7 5616          CLRC      AMODE                 ; [CPU_] 
    2746                      .dwpsn  file "D:/work/DSP/Steering_Engine/F2833x/v141/DSP2833x_common/source/DSP2833x_DefaultIsr.c",l
    2747 000001e8 7625        ESTOP0
    2748 000001e9       $C$L49:    
    2749                      .dwpsn  file "D:/work/DSP/Steering_Engine/F2833x/v141/DSP2833x_common/source/DSP2833x_DefaultIsr.c",l
    2750 000001e9 6F00          B         $C$L49,UNC            ; [CPU_] |697| 
    2751                      ; branch occurs ; [] |697| 
    2752                      .dwattr $C$DW$49, DW_AT_TI_end_file("D:/work/DSP/Steering_Engine/F2833x/v141/DSP2833x_common/source/D
    2753                      .dwattr $C$DW$49, DW_AT_TI_end_line(0x2ba)
    2754                      .dwattr $C$DW$49, DW_AT_TI_end_column(0x01)
    2755                      .dwendentry
    2756                      .dwendtag $C$DW$49
    2757              
    2758 000001ea               .sect   ".text:retain"
    2759                      .retain
    2760                      .retainrefs
    2761                      .global _MXINTB_ISR
    2762              
TMS320C2000 Assembler PC v15.12.1 Sat Jun 25 21:32:07 2016

Tools Copyright (c) 1996-2015 Texas Instruments Incorporated
C:\Users\RJKJ_ZGH\AppData\Local\Temp\0832410                         PAGE   53

    2763              $C$DW$50        .dwtag  DW_TAG_subprogram
    2764                      .dwattr $C$DW$50, DW_AT_name("MXINTB_ISR")
    2765                      .dwattr $C$DW$50, DW_AT_low_pc(_MXINTB_ISR)
    2766                      .dwattr $C$DW$50, DW_AT_high_pc(0x00)
    2767                      .dwattr $C$DW$50, DW_AT_TI_symbol_name("_MXINTB_ISR")
    2768                      .dwattr $C$DW$50, DW_AT_external
    2769                      .dwattr $C$DW$50, DW_AT_TI_begin_file("D:/work/DSP/Steering_Engine/F2833x/v141/DSP2833x_common/source
    2770                      .dwattr $C$DW$50, DW_AT_TI_begin_line(0x2bd)
    2771                      .dwattr $C$DW$50, DW_AT_TI_begin_column(0x10)
    2772                      .dwattr $C$DW$50, DW_AT_TI_interrupt
    2773                      .dwattr $C$DW$50, DW_AT_TI_max_frame_size(-6)
    2774                      .dwpsn  file "D:/work/DSP/Steering_Engine/F2833x/v141/DSP2833x_common/source/DSP2833x_DefaultIsr.c",l
    2775              
    2776                      .dwfde $C$DW$CIE, _MXINTB_ISR
    2777              
    2778              ;***************************************************************
    2779              ;* FNAME: _MXINTB_ISR                   FR SIZE:   4           *
    2780              ;*                                                             *
    2781              ;* FUNCTION ENVIRONMENT                                        *
    2782              ;*                                                             *
    2783              ;* FUNCTION PROPERTIES                                         *
    2784              ;*                            0 Parameter,  0 Auto,  4 SOE     *
    2785              ;***************************************************************
    2786              
    2787 000001ea       _MXINTB_ISR:
    2788                      .dwcfi  cfa_offset, -2
    2789                      .dwcfi  save_reg_to_mem, 26, 0
    2790 000001ea 761B          ASP       ; [CPU_] 
    2791 000001eb FFF0          PUSH      RB                    ; [CPU_] 
    2792                      .dwcfi  save_reg_to_mem, 73, 2
    2793                      .dwcfi  save_reg_to_mem, 74, 3
    2794                      .dwcfi  cfa_offset, -4
    2795 000001ec E200          MOV32     *SP++,STF             ; [CPU_] 
         000001ed 00BD 
    2796                      .dwcfi  save_reg_to_mem, 39, 4
    2797                      .dwcfi  save_reg_to_mem, 40, 5
    2798                      .dwcfi  cfa_offset, -6
    2799 000001ee E630          SETFLG    RNDF32=1, RNDF64=1    ; [CPU_] 
         000001ef 0600 
    2800 000001f0 2942          CLRC      PAGE0,OVM             ; [CPU_] 
    2801 000001f1 5616          CLRC      AMODE                 ; [CPU_] 
    2802                      .dwpsn  file "D:/work/DSP/Steering_Engine/F2833x/v141/DSP2833x_common/source/DSP2833x_DefaultIsr.c",l
    2803 000001f2 7625        ESTOP0
    2804 000001f3       $C$L50:    
    2805                      .dwpsn  file "D:/work/DSP/Steering_Engine/F2833x/v141/DSP2833x_common/source/DSP2833x_DefaultIsr.c",l
    2806 000001f3 6F00          B         $C$L50,UNC            ; [CPU_] |711| 
    2807                      ; branch occurs ; [] |711| 
    2808                      .dwattr $C$DW$50, DW_AT_TI_end_file("D:/work/DSP/Steering_Engine/F2833x/v141/DSP2833x_common/source/D
    2809                      .dwattr $C$DW$50, DW_AT_TI_end_line(0x2c8)
    2810                      .dwattr $C$DW$50, DW_AT_TI_end_column(0x01)
    2811                      .dwendentry
    2812                      .dwendtag $C$DW$50
    2813              
    2814 000001f4               .sect   ".text:retain"
    2815                      .retain
TMS320C2000 Assembler PC v15.12.1 Sat Jun 25 21:32:07 2016

Tools Copyright (c) 1996-2015 Texas Instruments Incorporated
C:\Users\RJKJ_ZGH\AppData\Local\Temp\0832410                         PAGE   54

    2816                      .retainrefs
    2817                      .global _MRINTA_ISR
    2818              
    2819              $C$DW$51        .dwtag  DW_TAG_subprogram
    2820                      .dwattr $C$DW$51, DW_AT_name("MRINTA_ISR")
    2821                      .dwattr $C$DW$51, DW_AT_low_pc(_MRINTA_ISR)
    2822                      .dwattr $C$DW$51, DW_AT_high_pc(0x00)
    2823                      .dwattr $C$DW$51, DW_AT_TI_symbol_name("_MRINTA_ISR")
    2824                      .dwattr $C$DW$51, DW_AT_external
    2825                      .dwattr $C$DW$51, DW_AT_TI_begin_file("D:/work/DSP/Steering_Engine/F2833x/v141/DSP2833x_common/source
    2826                      .dwattr $C$DW$51, DW_AT_TI_begin_line(0x2cb)
    2827                      .dwattr $C$DW$51, DW_AT_TI_begin_column(0x10)
    2828                      .dwattr $C$DW$51, DW_AT_TI_interrupt
    2829                      .dwattr $C$DW$51, DW_AT_TI_max_frame_size(-6)
    2830                      .dwpsn  file "D:/work/DSP/Steering_Engine/F2833x/v141/DSP2833x_common/source/DSP2833x_DefaultIsr.c",l
    2831              
    2832                      .dwfde $C$DW$CIE, _MRINTA_ISR
    2833              
    2834              ;***************************************************************
    2835              ;* FNAME: _MRINTA_ISR                   FR SIZE:   4           *
    2836              ;*                                                             *
    2837              ;* FUNCTION ENVIRONMENT                                        *
    2838              ;*                                                             *
    2839              ;* FUNCTION PROPERTIES                                         *
    2840              ;*                            0 Parameter,  0 Auto,  4 SOE     *
    2841              ;***************************************************************
    2842              
    2843 000001f4       _MRINTA_ISR:
    2844                      .dwcfi  cfa_offset, -2
    2845                      .dwcfi  save_reg_to_mem, 26, 0
    2846 000001f4 761B          ASP       ; [CPU_] 
    2847 000001f5 FFF0          PUSH      RB                    ; [CPU_] 
    2848                      .dwcfi  save_reg_to_mem, 73, 2
    2849                      .dwcfi  save_reg_to_mem, 74, 3
    2850                      .dwcfi  cfa_offset, -4
    2851 000001f6 E200          MOV32     *SP++,STF             ; [CPU_] 
         000001f7 00BD 
    2852                      .dwcfi  save_reg_to_mem, 39, 4
    2853                      .dwcfi  save_reg_to_mem, 40, 5
    2854                      .dwcfi  cfa_offset, -6
    2855 000001f8 E630          SETFLG    RNDF32=1, RNDF64=1    ; [CPU_] 
         000001f9 0600 
    2856 000001fa 2942          CLRC      PAGE0,OVM             ; [CPU_] 
    2857 000001fb 5616          CLRC      AMODE                 ; [CPU_] 
    2858                      .dwpsn  file "D:/work/DSP/Steering_Engine/F2833x/v141/DSP2833x_common/source/DSP2833x_DefaultIsr.c",l
    2859 000001fc 7625        ESTOP0
    2860 000001fd       $C$L51:    
    2861                      .dwpsn  file "D:/work/DSP/Steering_Engine/F2833x/v141/DSP2833x_common/source/DSP2833x_DefaultIsr.c",l
    2862 000001fd 6F00          B         $C$L51,UNC            ; [CPU_] |725| 
    2863                      ; branch occurs ; [] |725| 
    2864                      .dwattr $C$DW$51, DW_AT_TI_end_file("D:/work/DSP/Steering_Engine/F2833x/v141/DSP2833x_common/source/D
    2865                      .dwattr $C$DW$51, DW_AT_TI_end_line(0x2d6)
    2866                      .dwattr $C$DW$51, DW_AT_TI_end_column(0x01)
    2867                      .dwendentry
    2868                      .dwendtag $C$DW$51
TMS320C2000 Assembler PC v15.12.1 Sat Jun 25 21:32:07 2016

Tools Copyright (c) 1996-2015 Texas Instruments Incorporated
C:\Users\RJKJ_ZGH\AppData\Local\Temp\0832410                         PAGE   55

    2869              
    2870 000001fe               .sect   ".text:retain"
    2871                      .retain
    2872                      .retainrefs
    2873                      .global _MXINTA_ISR
    2874              
    2875              $C$DW$52        .dwtag  DW_TAG_subprogram
    2876                      .dwattr $C$DW$52, DW_AT_name("MXINTA_ISR")
    2877                      .dwattr $C$DW$52, DW_AT_low_pc(_MXINTA_ISR)
    2878                      .dwattr $C$DW$52, DW_AT_high_pc(0x00)
    2879                      .dwattr $C$DW$52, DW_AT_TI_symbol_name("_MXINTA_ISR")
    2880                      .dwattr $C$DW$52, DW_AT_external
    2881                      .dwattr $C$DW$52, DW_AT_TI_begin_file("D:/work/DSP/Steering_Engine/F2833x/v141/DSP2833x_common/source
    2882                      .dwattr $C$DW$52, DW_AT_TI_begin_line(0x2d9)
    2883                      .dwattr $C$DW$52, DW_AT_TI_begin_column(0x10)
    2884                      .dwattr $C$DW$52, DW_AT_TI_interrupt
    2885                      .dwattr $C$DW$52, DW_AT_TI_max_frame_size(-6)
    2886                      .dwpsn  file "D:/work/DSP/Steering_Engine/F2833x/v141/DSP2833x_common/source/DSP2833x_DefaultIsr.c",l
    2887              
    2888                      .dwfde $C$DW$CIE, _MXINTA_ISR
    2889              
    2890              ;***************************************************************
    2891              ;* FNAME: _MXINTA_ISR                   FR SIZE:   4           *
    2892              ;*                                                             *
    2893              ;* FUNCTION ENVIRONMENT                                        *
    2894              ;*                                                             *
    2895              ;* FUNCTION PROPERTIES                                         *
    2896              ;*                            0 Parameter,  0 Auto,  4 SOE     *
    2897              ;***************************************************************
    2898              
    2899 000001fe       _MXINTA_ISR:
    2900                      .dwcfi  cfa_offset, -2
    2901                      .dwcfi  save_reg_to_mem, 26, 0
    2902 000001fe 761B          ASP       ; [CPU_] 
    2903 000001ff FFF0          PUSH      RB                    ; [CPU_] 
    2904                      .dwcfi  save_reg_to_mem, 73, 2
    2905                      .dwcfi  save_reg_to_mem, 74, 3
    2906                      .dwcfi  cfa_offset, -4
    2907 00000200 E200          MOV32     *SP++,STF             ; [CPU_] 
         00000201 00BD 
    2908                      .dwcfi  save_reg_to_mem, 39, 4
    2909                      .dwcfi  save_reg_to_mem, 40, 5
    2910                      .dwcfi  cfa_offset, -6
    2911 00000202 E630          SETFLG    RNDF32=1, RNDF64=1    ; [CPU_] 
         00000203 0600 
    2912 00000204 2942          CLRC      PAGE0,OVM             ; [CPU_] 
    2913 00000205 5616          CLRC      AMODE                 ; [CPU_] 
    2914                      .dwpsn  file "D:/work/DSP/Steering_Engine/F2833x/v141/DSP2833x_common/source/DSP2833x_DefaultIsr.c",l
    2915 00000206 7625        ESTOP0
    2916 00000207       $C$L52:    
    2917                      .dwpsn  file "D:/work/DSP/Steering_Engine/F2833x/v141/DSP2833x_common/source/DSP2833x_DefaultIsr.c",l
    2918 00000207 6F00          B         $C$L52,UNC            ; [CPU_] |739| 
    2919                      ; branch occurs ; [] |739| 
    2920                      .dwattr $C$DW$52, DW_AT_TI_end_file("D:/work/DSP/Steering_Engine/F2833x/v141/DSP2833x_common/source/D
    2921                      .dwattr $C$DW$52, DW_AT_TI_end_line(0x2e4)
TMS320C2000 Assembler PC v15.12.1 Sat Jun 25 21:32:07 2016

Tools Copyright (c) 1996-2015 Texas Instruments Incorporated
C:\Users\RJKJ_ZGH\AppData\Local\Temp\0832410                         PAGE   56

    2922                      .dwattr $C$DW$52, DW_AT_TI_end_column(0x01)
    2923                      .dwendentry
    2924                      .dwendtag $C$DW$52
    2925              
    2926 00000208               .sect   ".text:retain"
    2927                      .retain
    2928                      .retainrefs
    2929                      .global _DINTCH1_ISR
    2930              
    2931              $C$DW$53        .dwtag  DW_TAG_subprogram
    2932                      .dwattr $C$DW$53, DW_AT_name("DINTCH1_ISR")
    2933                      .dwattr $C$DW$53, DW_AT_low_pc(_DINTCH1_ISR)
    2934                      .dwattr $C$DW$53, DW_AT_high_pc(0x00)
    2935                      .dwattr $C$DW$53, DW_AT_TI_symbol_name("_DINTCH1_ISR")
    2936                      .dwattr $C$DW$53, DW_AT_external
    2937                      .dwattr $C$DW$53, DW_AT_TI_begin_file("D:/work/DSP/Steering_Engine/F2833x/v141/DSP2833x_common/source
    2938                      .dwattr $C$DW$53, DW_AT_TI_begin_line(0x2f1)
    2939                      .dwattr $C$DW$53, DW_AT_TI_begin_column(0x10)
    2940                      .dwattr $C$DW$53, DW_AT_TI_interrupt
    2941                      .dwattr $C$DW$53, DW_AT_TI_max_frame_size(-6)
    2942                      .dwpsn  file "D:/work/DSP/Steering_Engine/F2833x/v141/DSP2833x_common/source/DSP2833x_DefaultIsr.c",l
    2943              
    2944                      .dwfde $C$DW$CIE, _DINTCH1_ISR
    2945              
    2946              ;***************************************************************
    2947              ;* FNAME: _DINTCH1_ISR                  FR SIZE:   4           *
    2948              ;*                                                             *
    2949              ;* FUNCTION ENVIRONMENT                                        *
    2950              ;*                                                             *
    2951              ;* FUNCTION PROPERTIES                                         *
    2952              ;*                            0 Parameter,  0 Auto,  4 SOE     *
    2953              ;***************************************************************
    2954              
    2955 00000208       _DINTCH1_ISR:
    2956                      .dwcfi  cfa_offset, -2
    2957                      .dwcfi  save_reg_to_mem, 26, 0
    2958 00000208 761B          ASP       ; [CPU_] 
    2959 00000209 FFF0          PUSH      RB                    ; [CPU_] 
    2960                      .dwcfi  save_reg_to_mem, 73, 2
    2961                      .dwcfi  save_reg_to_mem, 74, 3
    2962                      .dwcfi  cfa_offset, -4
    2963 0000020a E200          MOV32     *SP++,STF             ; [CPU_] 
         0000020b 00BD 
    2964                      .dwcfi  save_reg_to_mem, 39, 4
    2965                      .dwcfi  save_reg_to_mem, 40, 5
    2966                      .dwcfi  cfa_offset, -6
    2967 0000020c E630          SETFLG    RNDF32=1, RNDF64=1    ; [CPU_] 
         0000020d 0600 
    2968 0000020e 2942          CLRC      PAGE0,OVM             ; [CPU_] 
    2969 0000020f 5616          CLRC      AMODE                 ; [CPU_] 
    2970                      .dwpsn  file "D:/work/DSP/Steering_Engine/F2833x/v141/DSP2833x_common/source/DSP2833x_DefaultIsr.c",l
    2971 00000210 7625        ESTOP0
    2972 00000211       $C$L53:    
    2973                      .dwpsn  file "D:/work/DSP/Steering_Engine/F2833x/v141/DSP2833x_common/source/DSP2833x_DefaultIsr.c",l
    2974 00000211 6F00          B         $C$L53,UNC            ; [CPU_] |763| 
TMS320C2000 Assembler PC v15.12.1 Sat Jun 25 21:32:07 2016

Tools Copyright (c) 1996-2015 Texas Instruments Incorporated
C:\Users\RJKJ_ZGH\AppData\Local\Temp\0832410                         PAGE   57

    2975                      ; branch occurs ; [] |763| 
    2976                      .dwattr $C$DW$53, DW_AT_TI_end_file("D:/work/DSP/Steering_Engine/F2833x/v141/DSP2833x_common/source/D
    2977                      .dwattr $C$DW$53, DW_AT_TI_end_line(0x2fc)
    2978                      .dwattr $C$DW$53, DW_AT_TI_end_column(0x01)
    2979                      .dwendentry
    2980                      .dwendtag $C$DW$53
    2981              
    2982 00000212               .sect   ".text:retain"
    2983                      .retain
    2984                      .retainrefs
    2985                      .global _DINTCH2_ISR
    2986              
    2987              $C$DW$54        .dwtag  DW_TAG_subprogram
    2988                      .dwattr $C$DW$54, DW_AT_name("DINTCH2_ISR")
    2989                      .dwattr $C$DW$54, DW_AT_low_pc(_DINTCH2_ISR)
    2990                      .dwattr $C$DW$54, DW_AT_high_pc(0x00)
    2991                      .dwattr $C$DW$54, DW_AT_TI_symbol_name("_DINTCH2_ISR")
    2992                      .dwattr $C$DW$54, DW_AT_external
    2993                      .dwattr $C$DW$54, DW_AT_TI_begin_file("D:/work/DSP/Steering_Engine/F2833x/v141/DSP2833x_common/source
    2994                      .dwattr $C$DW$54, DW_AT_TI_begin_line(0x2ff)
    2995                      .dwattr $C$DW$54, DW_AT_TI_begin_column(0x10)
    2996                      .dwattr $C$DW$54, DW_AT_TI_interrupt
    2997                      .dwattr $C$DW$54, DW_AT_TI_max_frame_size(-6)
    2998                      .dwpsn  file "D:/work/DSP/Steering_Engine/F2833x/v141/DSP2833x_common/source/DSP2833x_DefaultIsr.c",l
    2999              
    3000                      .dwfde $C$DW$CIE, _DINTCH2_ISR
    3001              
    3002              ;***************************************************************
    3003              ;* FNAME: _DINTCH2_ISR                  FR SIZE:   4           *
    3004              ;*                                                             *
    3005              ;* FUNCTION ENVIRONMENT                                        *
    3006              ;*                                                             *
    3007              ;* FUNCTION PROPERTIES                                         *
    3008              ;*                            0 Parameter,  0 Auto,  4 SOE     *
    3009              ;***************************************************************
    3010              
    3011 00000212       _DINTCH2_ISR:
    3012                      .dwcfi  cfa_offset, -2
    3013                      .dwcfi  save_reg_to_mem, 26, 0
    3014 00000212 761B          ASP       ; [CPU_] 
    3015 00000213 FFF0          PUSH      RB                    ; [CPU_] 
    3016                      .dwcfi  save_reg_to_mem, 73, 2
    3017                      .dwcfi  save_reg_to_mem, 74, 3
    3018                      .dwcfi  cfa_offset, -4
    3019 00000214 E200          MOV32     *SP++,STF             ; [CPU_] 
         00000215 00BD 
    3020                      .dwcfi  save_reg_to_mem, 39, 4
    3021                      .dwcfi  save_reg_to_mem, 40, 5
    3022                      .dwcfi  cfa_offset, -6
    3023 00000216 E630          SETFLG    RNDF32=1, RNDF64=1    ; [CPU_] 
         00000217 0600 
    3024 00000218 2942          CLRC      PAGE0,OVM             ; [CPU_] 
    3025 00000219 5616          CLRC      AMODE                 ; [CPU_] 
    3026                      .dwpsn  file "D:/work/DSP/Steering_Engine/F2833x/v141/DSP2833x_common/source/DSP2833x_DefaultIsr.c",l
    3027 0000021a 7625        ESTOP0
TMS320C2000 Assembler PC v15.12.1 Sat Jun 25 21:32:07 2016

Tools Copyright (c) 1996-2015 Texas Instruments Incorporated
C:\Users\RJKJ_ZGH\AppData\Local\Temp\0832410                         PAGE   58

    3028 0000021b       $C$L54:    
    3029                      .dwpsn  file "D:/work/DSP/Steering_Engine/F2833x/v141/DSP2833x_common/source/DSP2833x_DefaultIsr.c",l
    3030 0000021b 6F00          B         $C$L54,UNC            ; [CPU_] |777| 
    3031                      ; branch occurs ; [] |777| 
    3032                      .dwattr $C$DW$54, DW_AT_TI_end_file("D:/work/DSP/Steering_Engine/F2833x/v141/DSP2833x_common/source/D
    3033                      .dwattr $C$DW$54, DW_AT_TI_end_line(0x30a)
    3034                      .dwattr $C$DW$54, DW_AT_TI_end_column(0x01)
    3035                      .dwendentry
    3036                      .dwendtag $C$DW$54
    3037              
    3038 0000021c               .sect   ".text:retain"
    3039                      .retain
    3040                      .retainrefs
    3041                      .global _DINTCH3_ISR
    3042              
    3043              $C$DW$55        .dwtag  DW_TAG_subprogram
    3044                      .dwattr $C$DW$55, DW_AT_name("DINTCH3_ISR")
    3045                      .dwattr $C$DW$55, DW_AT_low_pc(_DINTCH3_ISR)
    3046                      .dwattr $C$DW$55, DW_AT_high_pc(0x00)
    3047                      .dwattr $C$DW$55, DW_AT_TI_symbol_name("_DINTCH3_ISR")
    3048                      .dwattr $C$DW$55, DW_AT_external
    3049                      .dwattr $C$DW$55, DW_AT_TI_begin_file("D:/work/DSP/Steering_Engine/F2833x/v141/DSP2833x_common/source
    3050                      .dwattr $C$DW$55, DW_AT_TI_begin_line(0x30d)
    3051                      .dwattr $C$DW$55, DW_AT_TI_begin_column(0x10)
    3052                      .dwattr $C$DW$55, DW_AT_TI_interrupt
    3053                      .dwattr $C$DW$55, DW_AT_TI_max_frame_size(-6)
    3054                      .dwpsn  file "D:/work/DSP/Steering_Engine/F2833x/v141/DSP2833x_common/source/DSP2833x_DefaultIsr.c",l
    3055              
    3056                      .dwfde $C$DW$CIE, _DINTCH3_ISR
    3057              
    3058              ;***************************************************************
    3059              ;* FNAME: _DINTCH3_ISR                  FR SIZE:   4           *
    3060              ;*                                                             *
    3061              ;* FUNCTION ENVIRONMENT                                        *
    3062              ;*                                                             *
    3063              ;* FUNCTION PROPERTIES                                         *
    3064              ;*                            0 Parameter,  0 Auto,  4 SOE     *
    3065              ;***************************************************************
    3066              
    3067 0000021c       _DINTCH3_ISR:
    3068                      .dwcfi  cfa_offset, -2
    3069                      .dwcfi  save_reg_to_mem, 26, 0
    3070 0000021c 761B          ASP       ; [CPU_] 
    3071 0000021d FFF0          PUSH      RB                    ; [CPU_] 
    3072                      .dwcfi  save_reg_to_mem, 73, 2
    3073                      .dwcfi  save_reg_to_mem, 74, 3
    3074                      .dwcfi  cfa_offset, -4
    3075 0000021e E200          MOV32     *SP++,STF             ; [CPU_] 
         0000021f 00BD 
    3076                      .dwcfi  save_reg_to_mem, 39, 4
    3077                      .dwcfi  save_reg_to_mem, 40, 5
    3078                      .dwcfi  cfa_offset, -6
    3079 00000220 E630          SETFLG    RNDF32=1, RNDF64=1    ; [CPU_] 
         00000221 0600 
    3080 00000222 2942          CLRC      PAGE0,OVM             ; [CPU_] 
TMS320C2000 Assembler PC v15.12.1 Sat Jun 25 21:32:07 2016

Tools Copyright (c) 1996-2015 Texas Instruments Incorporated
C:\Users\RJKJ_ZGH\AppData\Local\Temp\0832410                         PAGE   59

    3081 00000223 5616          CLRC      AMODE                 ; [CPU_] 
    3082                      .dwpsn  file "D:/work/DSP/Steering_Engine/F2833x/v141/DSP2833x_common/source/DSP2833x_DefaultIsr.c",l
    3083 00000224 7625        ESTOP0
    3084 00000225       $C$L55:    
    3085                      .dwpsn  file "D:/work/DSP/Steering_Engine/F2833x/v141/DSP2833x_common/source/DSP2833x_DefaultIsr.c",l
    3086 00000225 6F00          B         $C$L55,UNC            ; [CPU_] |791| 
    3087                      ; branch occurs ; [] |791| 
    3088                      .dwattr $C$DW$55, DW_AT_TI_end_file("D:/work/DSP/Steering_Engine/F2833x/v141/DSP2833x_common/source/D
    3089                      .dwattr $C$DW$55, DW_AT_TI_end_line(0x318)
    3090                      .dwattr $C$DW$55, DW_AT_TI_end_column(0x01)
    3091                      .dwendentry
    3092                      .dwendtag $C$DW$55
    3093              
    3094 00000226               .sect   ".text:retain"
    3095                      .retain
    3096                      .retainrefs
    3097                      .global _DINTCH4_ISR
    3098              
    3099              $C$DW$56        .dwtag  DW_TAG_subprogram
    3100                      .dwattr $C$DW$56, DW_AT_name("DINTCH4_ISR")
    3101                      .dwattr $C$DW$56, DW_AT_low_pc(_DINTCH4_ISR)
    3102                      .dwattr $C$DW$56, DW_AT_high_pc(0x00)
    3103                      .dwattr $C$DW$56, DW_AT_TI_symbol_name("_DINTCH4_ISR")
    3104                      .dwattr $C$DW$56, DW_AT_external
    3105                      .dwattr $C$DW$56, DW_AT_TI_begin_file("D:/work/DSP/Steering_Engine/F2833x/v141/DSP2833x_common/source
    3106                      .dwattr $C$DW$56, DW_AT_TI_begin_line(0x31b)
    3107                      .dwattr $C$DW$56, DW_AT_TI_begin_column(0x10)
    3108                      .dwattr $C$DW$56, DW_AT_TI_interrupt
    3109                      .dwattr $C$DW$56, DW_AT_TI_max_frame_size(-6)
    3110                      .dwpsn  file "D:/work/DSP/Steering_Engine/F2833x/v141/DSP2833x_common/source/DSP2833x_DefaultIsr.c",l
    3111              
    3112                      .dwfde $C$DW$CIE, _DINTCH4_ISR
    3113              
    3114              ;***************************************************************
    3115              ;* FNAME: _DINTCH4_ISR                  FR SIZE:   4           *
    3116              ;*                                                             *
    3117              ;* FUNCTION ENVIRONMENT                                        *
    3118              ;*                                                             *
    3119              ;* FUNCTION PROPERTIES                                         *
    3120              ;*                            0 Parameter,  0 Auto,  4 SOE     *
    3121              ;***************************************************************
    3122              
    3123 00000226       _DINTCH4_ISR:
    3124                      .dwcfi  cfa_offset, -2
    3125                      .dwcfi  save_reg_to_mem, 26, 0
    3126 00000226 761B          ASP       ; [CPU_] 
    3127 00000227 FFF0          PUSH      RB                    ; [CPU_] 
    3128                      .dwcfi  save_reg_to_mem, 73, 2
    3129                      .dwcfi  save_reg_to_mem, 74, 3
    3130                      .dwcfi  cfa_offset, -4
    3131 00000228 E200          MOV32     *SP++,STF             ; [CPU_] 
         00000229 00BD 
    3132                      .dwcfi  save_reg_to_mem, 39, 4
    3133                      .dwcfi  save_reg_to_mem, 40, 5
    3134                      .dwcfi  cfa_offset, -6
TMS320C2000 Assembler PC v15.12.1 Sat Jun 25 21:32:07 2016

Tools Copyright (c) 1996-2015 Texas Instruments Incorporated
C:\Users\RJKJ_ZGH\AppData\Local\Temp\0832410                         PAGE   60

    3135 0000022a E630          SETFLG    RNDF32=1, RNDF64=1    ; [CPU_] 
         0000022b 0600 
    3136 0000022c 2942          CLRC      PAGE0,OVM             ; [CPU_] 
    3137 0000022d 5616          CLRC      AMODE                 ; [CPU_] 
    3138                      .dwpsn  file "D:/work/DSP/Steering_Engine/F2833x/v141/DSP2833x_common/source/DSP2833x_DefaultIsr.c",l
    3139 0000022e 7625        ESTOP0
    3140 0000022f       $C$L56:    
    3141                      .dwpsn  file "D:/work/DSP/Steering_Engine/F2833x/v141/DSP2833x_common/source/DSP2833x_DefaultIsr.c",l
    3142 0000022f 6F00          B         $C$L56,UNC            ; [CPU_] |805| 
    3143                      ; branch occurs ; [] |805| 
    3144                      .dwattr $C$DW$56, DW_AT_TI_end_file("D:/work/DSP/Steering_Engine/F2833x/v141/DSP2833x_common/source/D
    3145                      .dwattr $C$DW$56, DW_AT_TI_end_line(0x326)
    3146                      .dwattr $C$DW$56, DW_AT_TI_end_column(0x01)
    3147                      .dwendentry
    3148                      .dwendtag $C$DW$56
    3149              
    3150 00000230               .sect   ".text:retain"
    3151                      .retain
    3152                      .retainrefs
    3153                      .global _DINTCH5_ISR
    3154              
    3155              $C$DW$57        .dwtag  DW_TAG_subprogram
    3156                      .dwattr $C$DW$57, DW_AT_name("DINTCH5_ISR")
    3157                      .dwattr $C$DW$57, DW_AT_low_pc(_DINTCH5_ISR)
    3158                      .dwattr $C$DW$57, DW_AT_high_pc(0x00)
    3159                      .dwattr $C$DW$57, DW_AT_TI_symbol_name("_DINTCH5_ISR")
    3160                      .dwattr $C$DW$57, DW_AT_external
    3161                      .dwattr $C$DW$57, DW_AT_TI_begin_file("D:/work/DSP/Steering_Engine/F2833x/v141/DSP2833x_common/source
    3162                      .dwattr $C$DW$57, DW_AT_TI_begin_line(0x329)
    3163                      .dwattr $C$DW$57, DW_AT_TI_begin_column(0x10)
    3164                      .dwattr $C$DW$57, DW_AT_TI_interrupt
    3165                      .dwattr $C$DW$57, DW_AT_TI_max_frame_size(-6)
    3166                      .dwpsn  file "D:/work/DSP/Steering_Engine/F2833x/v141/DSP2833x_common/source/DSP2833x_DefaultIsr.c",l
    3167              
    3168                      .dwfde $C$DW$CIE, _DINTCH5_ISR
    3169              
    3170              ;***************************************************************
    3171              ;* FNAME: _DINTCH5_ISR                  FR SIZE:   4           *
    3172              ;*                                                             *
    3173              ;* FUNCTION ENVIRONMENT                                        *
    3174              ;*                                                             *
    3175              ;* FUNCTION PROPERTIES                                         *
    3176              ;*                            0 Parameter,  0 Auto,  4 SOE     *
    3177              ;***************************************************************
    3178              
    3179 00000230       _DINTCH5_ISR:
    3180                      .dwcfi  cfa_offset, -2
    3181                      .dwcfi  save_reg_to_mem, 26, 0
    3182 00000230 761B          ASP       ; [CPU_] 
    3183 00000231 FFF0          PUSH      RB                    ; [CPU_] 
    3184                      .dwcfi  save_reg_to_mem, 73, 2
    3185                      .dwcfi  save_reg_to_mem, 74, 3
    3186                      .dwcfi  cfa_offset, -4
    3187 00000232 E200          MOV32     *SP++,STF             ; [CPU_] 
         00000233 00BD 
TMS320C2000 Assembler PC v15.12.1 Sat Jun 25 21:32:07 2016

Tools Copyright (c) 1996-2015 Texas Instruments Incorporated
C:\Users\RJKJ_ZGH\AppData\Local\Temp\0832410                         PAGE   61

    3188                      .dwcfi  save_reg_to_mem, 39, 4
    3189                      .dwcfi  save_reg_to_mem, 40, 5
    3190                      .dwcfi  cfa_offset, -6
    3191 00000234 E630          SETFLG    RNDF32=1, RNDF64=1    ; [CPU_] 
         00000235 0600 
    3192 00000236 2942          CLRC      PAGE0,OVM             ; [CPU_] 
    3193 00000237 5616          CLRC      AMODE                 ; [CPU_] 
    3194                      .dwpsn  file "D:/work/DSP/Steering_Engine/F2833x/v141/DSP2833x_common/source/DSP2833x_DefaultIsr.c",l
    3195 00000238 7625        ESTOP0
    3196 00000239       $C$L57:    
    3197                      .dwpsn  file "D:/work/DSP/Steering_Engine/F2833x/v141/DSP2833x_common/source/DSP2833x_DefaultIsr.c",l
    3198 00000239 6F00          B         $C$L57,UNC            ; [CPU_] |819| 
    3199                      ; branch occurs ; [] |819| 
    3200                      .dwattr $C$DW$57, DW_AT_TI_end_file("D:/work/DSP/Steering_Engine/F2833x/v141/DSP2833x_common/source/D
    3201                      .dwattr $C$DW$57, DW_AT_TI_end_line(0x334)
    3202                      .dwattr $C$DW$57, DW_AT_TI_end_column(0x01)
    3203                      .dwendentry
    3204                      .dwendtag $C$DW$57
    3205              
    3206 0000023a               .sect   ".text:retain"
    3207                      .retain
    3208                      .retainrefs
    3209                      .global _DINTCH6_ISR
    3210              
    3211              $C$DW$58        .dwtag  DW_TAG_subprogram
    3212                      .dwattr $C$DW$58, DW_AT_name("DINTCH6_ISR")
    3213                      .dwattr $C$DW$58, DW_AT_low_pc(_DINTCH6_ISR)
    3214                      .dwattr $C$DW$58, DW_AT_high_pc(0x00)
    3215                      .dwattr $C$DW$58, DW_AT_TI_symbol_name("_DINTCH6_ISR")
    3216                      .dwattr $C$DW$58, DW_AT_external
    3217                      .dwattr $C$DW$58, DW_AT_TI_begin_file("D:/work/DSP/Steering_Engine/F2833x/v141/DSP2833x_common/source
    3218                      .dwattr $C$DW$58, DW_AT_TI_begin_line(0x337)
    3219                      .dwattr $C$DW$58, DW_AT_TI_begin_column(0x10)
    3220                      .dwattr $C$DW$58, DW_AT_TI_interrupt
    3221                      .dwattr $C$DW$58, DW_AT_TI_max_frame_size(-6)
    3222                      .dwpsn  file "D:/work/DSP/Steering_Engine/F2833x/v141/DSP2833x_common/source/DSP2833x_DefaultIsr.c",l
    3223              
    3224                      .dwfde $C$DW$CIE, _DINTCH6_ISR
    3225              
    3226              ;***************************************************************
    3227              ;* FNAME: _DINTCH6_ISR                  FR SIZE:   4           *
    3228              ;*                                                             *
    3229              ;* FUNCTION ENVIRONMENT                                        *
    3230              ;*                                                             *
    3231              ;* FUNCTION PROPERTIES                                         *
    3232              ;*                            0 Parameter,  0 Auto,  4 SOE     *
    3233              ;***************************************************************
    3234              
    3235 0000023a       _DINTCH6_ISR:
    3236                      .dwcfi  cfa_offset, -2
    3237                      .dwcfi  save_reg_to_mem, 26, 0
    3238 0000023a 761B          ASP       ; [CPU_] 
    3239 0000023b FFF0          PUSH      RB                    ; [CPU_] 
    3240                      .dwcfi  save_reg_to_mem, 73, 2
    3241                      .dwcfi  save_reg_to_mem, 74, 3
TMS320C2000 Assembler PC v15.12.1 Sat Jun 25 21:32:07 2016

Tools Copyright (c) 1996-2015 Texas Instruments Incorporated
C:\Users\RJKJ_ZGH\AppData\Local\Temp\0832410                         PAGE   62

    3242                      .dwcfi  cfa_offset, -4
    3243 0000023c E200          MOV32     *SP++,STF             ; [CPU_] 
         0000023d 00BD 
    3244                      .dwcfi  save_reg_to_mem, 39, 4
    3245                      .dwcfi  save_reg_to_mem, 40, 5
    3246                      .dwcfi  cfa_offset, -6
    3247 0000023e E630          SETFLG    RNDF32=1, RNDF64=1    ; [CPU_] 
         0000023f 0600 
    3248 00000240 2942          CLRC      PAGE0,OVM             ; [CPU_] 
    3249 00000241 5616          CLRC      AMODE                 ; [CPU_] 
    3250                      .dwpsn  file "D:/work/DSP/Steering_Engine/F2833x/v141/DSP2833x_common/source/DSP2833x_DefaultIsr.c",l
    3251 00000242 7625        ESTOP0
    3252 00000243       $C$L58:    
    3253                      .dwpsn  file "D:/work/DSP/Steering_Engine/F2833x/v141/DSP2833x_common/source/DSP2833x_DefaultIsr.c",l
    3254 00000243 6F00          B         $C$L58,UNC            ; [CPU_] |833| 
    3255                      ; branch occurs ; [] |833| 
    3256                      .dwattr $C$DW$58, DW_AT_TI_end_file("D:/work/DSP/Steering_Engine/F2833x/v141/DSP2833x_common/source/D
    3257                      .dwattr $C$DW$58, DW_AT_TI_end_line(0x342)
    3258                      .dwattr $C$DW$58, DW_AT_TI_end_column(0x01)
    3259                      .dwendentry
    3260                      .dwendtag $C$DW$58
    3261              
    3262 00000244               .sect   ".text:retain"
    3263                      .retain
    3264                      .retainrefs
    3265                      .global _I2CINT1A_ISR
    3266              
    3267              $C$DW$59        .dwtag  DW_TAG_subprogram
    3268                      .dwattr $C$DW$59, DW_AT_name("I2CINT1A_ISR")
    3269                      .dwattr $C$DW$59, DW_AT_low_pc(_I2CINT1A_ISR)
    3270                      .dwattr $C$DW$59, DW_AT_high_pc(0x00)
    3271                      .dwattr $C$DW$59, DW_AT_TI_symbol_name("_I2CINT1A_ISR")
    3272                      .dwattr $C$DW$59, DW_AT_external
    3273                      .dwattr $C$DW$59, DW_AT_TI_begin_file("D:/work/DSP/Steering_Engine/F2833x/v141/DSP2833x_common/source
    3274                      .dwattr $C$DW$59, DW_AT_TI_begin_line(0x34c)
    3275                      .dwattr $C$DW$59, DW_AT_TI_begin_column(0x10)
    3276                      .dwattr $C$DW$59, DW_AT_TI_interrupt
    3277                      .dwattr $C$DW$59, DW_AT_TI_max_frame_size(-6)
    3278                      .dwpsn  file "D:/work/DSP/Steering_Engine/F2833x/v141/DSP2833x_common/source/DSP2833x_DefaultIsr.c",l
    3279              
    3280                      .dwfde $C$DW$CIE, _I2CINT1A_ISR
    3281              
    3282              ;***************************************************************
    3283              ;* FNAME: _I2CINT1A_ISR                 FR SIZE:   4           *
    3284              ;*                                                             *
    3285              ;* FUNCTION ENVIRONMENT                                        *
    3286              ;*                                                             *
    3287              ;* FUNCTION PROPERTIES                                         *
    3288              ;*                            0 Parameter,  0 Auto,  4 SOE     *
    3289              ;***************************************************************
    3290              
    3291 00000244       _I2CINT1A_ISR:
    3292                      .dwcfi  cfa_offset, -2
    3293                      .dwcfi  save_reg_to_mem, 26, 0
    3294 00000244 761B          ASP       ; [CPU_] 
TMS320C2000 Assembler PC v15.12.1 Sat Jun 25 21:32:07 2016

Tools Copyright (c) 1996-2015 Texas Instruments Incorporated
C:\Users\RJKJ_ZGH\AppData\Local\Temp\0832410                         PAGE   63

    3295 00000245 FFF0          PUSH      RB                    ; [CPU_] 
    3296                      .dwcfi  save_reg_to_mem, 73, 2
    3297                      .dwcfi  save_reg_to_mem, 74, 3
    3298                      .dwcfi  cfa_offset, -4
    3299 00000246 E200          MOV32     *SP++,STF             ; [CPU_] 
         00000247 00BD 
    3300                      .dwcfi  save_reg_to_mem, 39, 4
    3301                      .dwcfi  save_reg_to_mem, 40, 5
    3302                      .dwcfi  cfa_offset, -6
    3303 00000248 E630          SETFLG    RNDF32=1, RNDF64=1    ; [CPU_] 
         00000249 0600 
    3304 0000024a 2942          CLRC      PAGE0,OVM             ; [CPU_] 
    3305 0000024b 5616          CLRC      AMODE                 ; [CPU_] 
    3306                      .dwpsn  file "D:/work/DSP/Steering_Engine/F2833x/v141/DSP2833x_common/source/DSP2833x_DefaultIsr.c",l
    3307 0000024c 7625        ESTOP0
    3308 0000024d       $C$L59:    
    3309                      .dwpsn  file "D:/work/DSP/Steering_Engine/F2833x/v141/DSP2833x_common/source/DSP2833x_DefaultIsr.c",l
    3310 0000024d 6F00          B         $C$L59,UNC            ; [CPU_] |854| 
    3311                      ; branch occurs ; [] |854| 
    3312                      .dwattr $C$DW$59, DW_AT_TI_end_file("D:/work/DSP/Steering_Engine/F2833x/v141/DSP2833x_common/source/D
    3313                      .dwattr $C$DW$59, DW_AT_TI_end_line(0x357)
    3314                      .dwattr $C$DW$59, DW_AT_TI_end_column(0x01)
    3315                      .dwendentry
    3316                      .dwendtag $C$DW$59
    3317              
    3318 0000024e               .sect   ".text:retain"
    3319                      .retain
    3320                      .retainrefs
    3321                      .global _I2CINT2A_ISR
    3322              
    3323              $C$DW$60        .dwtag  DW_TAG_subprogram
    3324                      .dwattr $C$DW$60, DW_AT_name("I2CINT2A_ISR")
    3325                      .dwattr $C$DW$60, DW_AT_low_pc(_I2CINT2A_ISR)
    3326                      .dwattr $C$DW$60, DW_AT_high_pc(0x00)
    3327                      .dwattr $C$DW$60, DW_AT_TI_symbol_name("_I2CINT2A_ISR")
    3328                      .dwattr $C$DW$60, DW_AT_external
    3329                      .dwattr $C$DW$60, DW_AT_TI_begin_file("D:/work/DSP/Steering_Engine/F2833x/v141/DSP2833x_common/source
    3330                      .dwattr $C$DW$60, DW_AT_TI_begin_line(0x35a)
    3331                      .dwattr $C$DW$60, DW_AT_TI_begin_column(0x10)
    3332                      .dwattr $C$DW$60, DW_AT_TI_interrupt
    3333                      .dwattr $C$DW$60, DW_AT_TI_max_frame_size(-6)
    3334                      .dwpsn  file "D:/work/DSP/Steering_Engine/F2833x/v141/DSP2833x_common/source/DSP2833x_DefaultIsr.c",l
    3335              
    3336                      .dwfde $C$DW$CIE, _I2CINT2A_ISR
    3337              
    3338              ;***************************************************************
    3339              ;* FNAME: _I2CINT2A_ISR                 FR SIZE:   4           *
    3340              ;*                                                             *
    3341              ;* FUNCTION ENVIRONMENT                                        *
    3342              ;*                                                             *
    3343              ;* FUNCTION PROPERTIES                                         *
    3344              ;*                            0 Parameter,  0 Auto,  4 SOE     *
    3345              ;***************************************************************
    3346              
    3347 0000024e       _I2CINT2A_ISR:
TMS320C2000 Assembler PC v15.12.1 Sat Jun 25 21:32:07 2016

Tools Copyright (c) 1996-2015 Texas Instruments Incorporated
C:\Users\RJKJ_ZGH\AppData\Local\Temp\0832410                         PAGE   64

    3348                      .dwcfi  cfa_offset, -2
    3349                      .dwcfi  save_reg_to_mem, 26, 0
    3350 0000024e 761B          ASP       ; [CPU_] 
    3351 0000024f FFF0          PUSH      RB                    ; [CPU_] 
    3352                      .dwcfi  save_reg_to_mem, 73, 2
    3353                      .dwcfi  save_reg_to_mem, 74, 3
    3354                      .dwcfi  cfa_offset, -4
    3355 00000250 E200          MOV32     *SP++,STF             ; [CPU_] 
         00000251 00BD 
    3356                      .dwcfi  save_reg_to_mem, 39, 4
    3357                      .dwcfi  save_reg_to_mem, 40, 5
    3358                      .dwcfi  cfa_offset, -6
    3359 00000252 E630          SETFLG    RNDF32=1, RNDF64=1    ; [CPU_] 
         00000253 0600 
    3360 00000254 2942          CLRC      PAGE0,OVM             ; [CPU_] 
    3361 00000255 5616          CLRC      AMODE                 ; [CPU_] 
    3362                      .dwpsn  file "D:/work/DSP/Steering_Engine/F2833x/v141/DSP2833x_common/source/DSP2833x_DefaultIsr.c",l
    3363 00000256 7625        ESTOP0
    3364 00000257       $C$L60:    
    3365                      .dwpsn  file "D:/work/DSP/Steering_Engine/F2833x/v141/DSP2833x_common/source/DSP2833x_DefaultIsr.c",l
    3366 00000257 6F00          B         $C$L60,UNC            ; [CPU_] |868| 
    3367                      ; branch occurs ; [] |868| 
    3368                      .dwattr $C$DW$60, DW_AT_TI_end_file("D:/work/DSP/Steering_Engine/F2833x/v141/DSP2833x_common/source/D
    3369                      .dwattr $C$DW$60, DW_AT_TI_end_line(0x365)
    3370                      .dwattr $C$DW$60, DW_AT_TI_end_column(0x01)
    3371                      .dwendentry
    3372                      .dwendtag $C$DW$60
    3373              
    3374 00000258               .sect   ".text:retain"
    3375                      .retain
    3376                      .retainrefs
    3377                      .global _SCIRXINTC_ISR
    3378              
    3379              $C$DW$61        .dwtag  DW_TAG_subprogram
    3380                      .dwattr $C$DW$61, DW_AT_name("SCIRXINTC_ISR")
    3381                      .dwattr $C$DW$61, DW_AT_low_pc(_SCIRXINTC_ISR)
    3382                      .dwattr $C$DW$61, DW_AT_high_pc(0x00)
    3383                      .dwattr $C$DW$61, DW_AT_TI_symbol_name("_SCIRXINTC_ISR")
    3384                      .dwattr $C$DW$61, DW_AT_external
    3385                      .dwattr $C$DW$61, DW_AT_TI_begin_file("D:/work/DSP/Steering_Engine/F2833x/v141/DSP2833x_common/source
    3386                      .dwattr $C$DW$61, DW_AT_TI_begin_line(0x36b)
    3387                      .dwattr $C$DW$61, DW_AT_TI_begin_column(0x10)
    3388                      .dwattr $C$DW$61, DW_AT_TI_interrupt
    3389                      .dwattr $C$DW$61, DW_AT_TI_max_frame_size(-6)
    3390                      .dwpsn  file "D:/work/DSP/Steering_Engine/F2833x/v141/DSP2833x_common/source/DSP2833x_DefaultIsr.c",l
    3391              
    3392                      .dwfde $C$DW$CIE, _SCIRXINTC_ISR
    3393              
    3394              ;***************************************************************
    3395              ;* FNAME: _SCIRXINTC_ISR                FR SIZE:   4           *
    3396              ;*                                                             *
    3397              ;* FUNCTION ENVIRONMENT                                        *
    3398              ;*                                                             *
    3399              ;* FUNCTION PROPERTIES                                         *
    3400              ;*                            0 Parameter,  0 Auto,  4 SOE     *
TMS320C2000 Assembler PC v15.12.1 Sat Jun 25 21:32:07 2016

Tools Copyright (c) 1996-2015 Texas Instruments Incorporated
C:\Users\RJKJ_ZGH\AppData\Local\Temp\0832410                         PAGE   65

    3401              ;***************************************************************
    3402              
    3403 00000258       _SCIRXINTC_ISR:
    3404                      .dwcfi  cfa_offset, -2
    3405                      .dwcfi  save_reg_to_mem, 26, 0
    3406 00000258 761B          ASP       ; [CPU_] 
    3407 00000259 FFF0          PUSH      RB                    ; [CPU_] 
    3408                      .dwcfi  save_reg_to_mem, 73, 2
    3409                      .dwcfi  save_reg_to_mem, 74, 3
    3410                      .dwcfi  cfa_offset, -4
    3411 0000025a E200          MOV32     *SP++,STF             ; [CPU_] 
         0000025b 00BD 
    3412                      .dwcfi  save_reg_to_mem, 39, 4
    3413                      .dwcfi  save_reg_to_mem, 40, 5
    3414                      .dwcfi  cfa_offset, -6
    3415 0000025c E630          SETFLG    RNDF32=1, RNDF64=1    ; [CPU_] 
         0000025d 0600 
    3416 0000025e 2942          CLRC      PAGE0,OVM             ; [CPU_] 
    3417 0000025f 5616          CLRC      AMODE                 ; [CPU_] 
    3418                      .dwpsn  file "D:/work/DSP/Steering_Engine/F2833x/v141/DSP2833x_common/source/DSP2833x_DefaultIsr.c",l
    3419 00000260 7625        ESTOP0
    3420 00000261       $C$L61:    
    3421                      .dwpsn  file "D:/work/DSP/Steering_Engine/F2833x/v141/DSP2833x_common/source/DSP2833x_DefaultIsr.c",l
    3422 00000261 6F00          B         $C$L61,UNC            ; [CPU_] |885| 
    3423                      ; branch occurs ; [] |885| 
    3424                      .dwattr $C$DW$61, DW_AT_TI_end_file("D:/work/DSP/Steering_Engine/F2833x/v141/DSP2833x_common/source/D
    3425                      .dwattr $C$DW$61, DW_AT_TI_end_line(0x377)
    3426                      .dwattr $C$DW$61, DW_AT_TI_end_column(0x01)
    3427                      .dwendentry
    3428                      .dwendtag $C$DW$61
    3429              
    3430 00000262               .sect   ".text:retain"
    3431                      .retain
    3432                      .retainrefs
    3433                      .global _SCITXINTC_ISR
    3434              
    3435              $C$DW$62        .dwtag  DW_TAG_subprogram
    3436                      .dwattr $C$DW$62, DW_AT_name("SCITXINTC_ISR")
    3437                      .dwattr $C$DW$62, DW_AT_low_pc(_SCITXINTC_ISR)
    3438                      .dwattr $C$DW$62, DW_AT_high_pc(0x00)
    3439                      .dwattr $C$DW$62, DW_AT_TI_symbol_name("_SCITXINTC_ISR")
    3440                      .dwattr $C$DW$62, DW_AT_external
    3441                      .dwattr $C$DW$62, DW_AT_TI_begin_file("D:/work/DSP/Steering_Engine/F2833x/v141/DSP2833x_common/source
    3442                      .dwattr $C$DW$62, DW_AT_TI_begin_line(0x37a)
    3443                      .dwattr $C$DW$62, DW_AT_TI_begin_column(0x10)
    3444                      .dwattr $C$DW$62, DW_AT_TI_interrupt
    3445                      .dwattr $C$DW$62, DW_AT_TI_max_frame_size(-6)
    3446                      .dwpsn  file "D:/work/DSP/Steering_Engine/F2833x/v141/DSP2833x_common/source/DSP2833x_DefaultIsr.c",l
    3447              
    3448                      .dwfde $C$DW$CIE, _SCITXINTC_ISR
    3449              
    3450              ;***************************************************************
    3451              ;* FNAME: _SCITXINTC_ISR                FR SIZE:   4           *
    3452              ;*                                                             *
    3453              ;* FUNCTION ENVIRONMENT                                        *
TMS320C2000 Assembler PC v15.12.1 Sat Jun 25 21:32:07 2016

Tools Copyright (c) 1996-2015 Texas Instruments Incorporated
C:\Users\RJKJ_ZGH\AppData\Local\Temp\0832410                         PAGE   66

    3454              ;*                                                             *
    3455              ;* FUNCTION PROPERTIES                                         *
    3456              ;*                            0 Parameter,  0 Auto,  4 SOE     *
    3457              ;***************************************************************
    3458              
    3459 00000262       _SCITXINTC_ISR:
    3460                      .dwcfi  cfa_offset, -2
    3461                      .dwcfi  save_reg_to_mem, 26, 0
    3462 00000262 761B          ASP       ; [CPU_] 
    3463 00000263 FFF0          PUSH      RB                    ; [CPU_] 
    3464                      .dwcfi  save_reg_to_mem, 73, 2
    3465                      .dwcfi  save_reg_to_mem, 74, 3
    3466                      .dwcfi  cfa_offset, -4
    3467 00000264 E200          MOV32     *SP++,STF             ; [CPU_] 
         00000265 00BD 
    3468                      .dwcfi  save_reg_to_mem, 39, 4
    3469                      .dwcfi  save_reg_to_mem, 40, 5
    3470                      .dwcfi  cfa_offset, -6
    3471 00000266 E630          SETFLG    RNDF32=1, RNDF64=1    ; [CPU_] 
         00000267 0600 
    3472 00000268 2942          CLRC      PAGE0,OVM             ; [CPU_] 
    3473 00000269 5616          CLRC      AMODE                 ; [CPU_] 
    3474                      .dwpsn  file "D:/work/DSP/Steering_Engine/F2833x/v141/DSP2833x_common/source/DSP2833x_DefaultIsr.c",l
    3475 0000026a 7625        ESTOP0
    3476 0000026b       $C$L62:    
    3477                      .dwpsn  file "D:/work/DSP/Steering_Engine/F2833x/v141/DSP2833x_common/source/DSP2833x_DefaultIsr.c",l
    3478 0000026b 6F00          B         $C$L62,UNC            ; [CPU_] |900| 
    3479                      ; branch occurs ; [] |900| 
    3480                      .dwattr $C$DW$62, DW_AT_TI_end_file("D:/work/DSP/Steering_Engine/F2833x/v141/DSP2833x_common/source/D
    3481                      .dwattr $C$DW$62, DW_AT_TI_end_line(0x386)
    3482                      .dwattr $C$DW$62, DW_AT_TI_end_column(0x01)
    3483                      .dwendentry
    3484                      .dwendtag $C$DW$62
    3485              
    3486 0000026c               .sect   ".text:retain"
    3487                      .retain
    3488                      .retainrefs
    3489                      .global _SCIRXINTA_ISR
    3490              
    3491              $C$DW$63        .dwtag  DW_TAG_subprogram
    3492                      .dwattr $C$DW$63, DW_AT_name("SCIRXINTA_ISR")
    3493                      .dwattr $C$DW$63, DW_AT_low_pc(_SCIRXINTA_ISR)
    3494                      .dwattr $C$DW$63, DW_AT_high_pc(0x00)
    3495                      .dwattr $C$DW$63, DW_AT_TI_symbol_name("_SCIRXINTA_ISR")
    3496                      .dwattr $C$DW$63, DW_AT_external
    3497                      .dwattr $C$DW$63, DW_AT_TI_begin_file("D:/work/DSP/Steering_Engine/F2833x/v141/DSP2833x_common/source
    3498                      .dwattr $C$DW$63, DW_AT_TI_begin_line(0x391)
    3499                      .dwattr $C$DW$63, DW_AT_TI_begin_column(0x10)
    3500                      .dwattr $C$DW$63, DW_AT_TI_interrupt
    3501                      .dwattr $C$DW$63, DW_AT_TI_max_frame_size(-6)
    3502                      .dwpsn  file "D:/work/DSP/Steering_Engine/F2833x/v141/DSP2833x_common/source/DSP2833x_DefaultIsr.c",l
    3503              
    3504                      .dwfde $C$DW$CIE, _SCIRXINTA_ISR
    3505              
    3506              ;***************************************************************
TMS320C2000 Assembler PC v15.12.1 Sat Jun 25 21:32:07 2016

Tools Copyright (c) 1996-2015 Texas Instruments Incorporated
C:\Users\RJKJ_ZGH\AppData\Local\Temp\0832410                         PAGE   67

    3507              ;* FNAME: _SCIRXINTA_ISR                FR SIZE:   4           *
    3508              ;*                                                             *
    3509              ;* FUNCTION ENVIRONMENT                                        *
    3510              ;*                                                             *
    3511              ;* FUNCTION PROPERTIES                                         *
    3512              ;*                            0 Parameter,  0 Auto,  4 SOE     *
    3513              ;***************************************************************
    3514              
    3515 0000026c       _SCIRXINTA_ISR:
    3516                      .dwcfi  cfa_offset, -2
    3517                      .dwcfi  save_reg_to_mem, 26, 0
    3518 0000026c 761B          ASP       ; [CPU_] 
    3519 0000026d FFF0          PUSH      RB                    ; [CPU_] 
    3520                      .dwcfi  save_reg_to_mem, 73, 2
    3521                      .dwcfi  save_reg_to_mem, 74, 3
    3522                      .dwcfi  cfa_offset, -4
    3523 0000026e E200          MOV32     *SP++,STF             ; [CPU_] 
         0000026f 00BD 
    3524                      .dwcfi  save_reg_to_mem, 39, 4
    3525                      .dwcfi  save_reg_to_mem, 40, 5
    3526                      .dwcfi  cfa_offset, -6
    3527 00000270 E630          SETFLG    RNDF32=1, RNDF64=1    ; [CPU_] 
         00000271 0600 
    3528 00000272 2942          CLRC      PAGE0,OVM             ; [CPU_] 
    3529 00000273 5616          CLRC      AMODE                 ; [CPU_] 
    3530                      .dwpsn  file "D:/work/DSP/Steering_Engine/F2833x/v141/DSP2833x_common/source/DSP2833x_DefaultIsr.c",l
    3531 00000274 7625        ESTOP0
    3532 00000275       $C$L63:    
    3533                      .dwpsn  file "D:/work/DSP/Steering_Engine/F2833x/v141/DSP2833x_common/source/DSP2833x_DefaultIsr.c",l
    3534 00000275 6F00          B         $C$L63,UNC            ; [CPU_] |923| 
    3535                      ; branch occurs ; [] |923| 
    3536                      .dwattr $C$DW$63, DW_AT_TI_end_file("D:/work/DSP/Steering_Engine/F2833x/v141/DSP2833x_common/source/D
    3537                      .dwattr $C$DW$63, DW_AT_TI_end_line(0x39d)
    3538                      .dwattr $C$DW$63, DW_AT_TI_end_column(0x01)
    3539                      .dwendentry
    3540                      .dwendtag $C$DW$63
    3541              
    3542 00000276               .sect   ".text:retain"
    3543                      .retain
    3544                      .retainrefs
    3545                      .global _SCITXINTA_ISR
    3546              
    3547              $C$DW$64        .dwtag  DW_TAG_subprogram
    3548                      .dwattr $C$DW$64, DW_AT_name("SCITXINTA_ISR")
    3549                      .dwattr $C$DW$64, DW_AT_low_pc(_SCITXINTA_ISR)
    3550                      .dwattr $C$DW$64, DW_AT_high_pc(0x00)
    3551                      .dwattr $C$DW$64, DW_AT_TI_symbol_name("_SCITXINTA_ISR")
    3552                      .dwattr $C$DW$64, DW_AT_external
    3553                      .dwattr $C$DW$64, DW_AT_TI_begin_file("D:/work/DSP/Steering_Engine/F2833x/v141/DSP2833x_common/source
    3554                      .dwattr $C$DW$64, DW_AT_TI_begin_line(0x3a0)
    3555                      .dwattr $C$DW$64, DW_AT_TI_begin_column(0x10)
    3556                      .dwattr $C$DW$64, DW_AT_TI_interrupt
    3557                      .dwattr $C$DW$64, DW_AT_TI_max_frame_size(-6)
    3558                      .dwpsn  file "D:/work/DSP/Steering_Engine/F2833x/v141/DSP2833x_common/source/DSP2833x_DefaultIsr.c",l
    3559              
TMS320C2000 Assembler PC v15.12.1 Sat Jun 25 21:32:07 2016

Tools Copyright (c) 1996-2015 Texas Instruments Incorporated
C:\Users\RJKJ_ZGH\AppData\Local\Temp\0832410                         PAGE   68

    3560                      .dwfde $C$DW$CIE, _SCITXINTA_ISR
    3561              
    3562              ;***************************************************************
    3563              ;* FNAME: _SCITXINTA_ISR                FR SIZE:   4           *
    3564              ;*                                                             *
    3565              ;* FUNCTION ENVIRONMENT                                        *
    3566              ;*                                                             *
    3567              ;* FUNCTION PROPERTIES                                         *
    3568              ;*                            0 Parameter,  0 Auto,  4 SOE     *
    3569              ;***************************************************************
    3570              
    3571 00000276       _SCITXINTA_ISR:
    3572                      .dwcfi  cfa_offset, -2
    3573                      .dwcfi  save_reg_to_mem, 26, 0
    3574 00000276 761B          ASP       ; [CPU_] 
    3575 00000277 FFF0          PUSH      RB                    ; [CPU_] 
    3576                      .dwcfi  save_reg_to_mem, 73, 2
    3577                      .dwcfi  save_reg_to_mem, 74, 3
    3578                      .dwcfi  cfa_offset, -4
    3579 00000278 E200          MOV32     *SP++,STF             ; [CPU_] 
         00000279 00BD 
    3580                      .dwcfi  save_reg_to_mem, 39, 4
    3581                      .dwcfi  save_reg_to_mem, 40, 5
    3582                      .dwcfi  cfa_offset, -6
    3583 0000027a E630          SETFLG    RNDF32=1, RNDF64=1    ; [CPU_] 
         0000027b 0600 
    3584 0000027c 2942          CLRC      PAGE0,OVM             ; [CPU_] 
    3585 0000027d 5616          CLRC      AMODE                 ; [CPU_] 
    3586                      .dwpsn  file "D:/work/DSP/Steering_Engine/F2833x/v141/DSP2833x_common/source/DSP2833x_DefaultIsr.c",l
    3587 0000027e 7625        ESTOP0
    3588 0000027f       $C$L64:    
    3589                      .dwpsn  file "D:/work/DSP/Steering_Engine/F2833x/v141/DSP2833x_common/source/DSP2833x_DefaultIsr.c",l
    3590 0000027f 6F00          B         $C$L64,UNC            ; [CPU_] |938| 
    3591                      ; branch occurs ; [] |938| 
    3592                      .dwattr $C$DW$64, DW_AT_TI_end_file("D:/work/DSP/Steering_Engine/F2833x/v141/DSP2833x_common/source/D
    3593                      .dwattr $C$DW$64, DW_AT_TI_end_line(0x3ac)
    3594                      .dwattr $C$DW$64, DW_AT_TI_end_column(0x01)
    3595                      .dwendentry
    3596                      .dwendtag $C$DW$64
    3597              
    3598 00000280               .sect   ".text:retain"
    3599                      .retain
    3600                      .retainrefs
    3601                      .global _SCIRXINTB_ISR
    3602              
    3603              $C$DW$65        .dwtag  DW_TAG_subprogram
    3604                      .dwattr $C$DW$65, DW_AT_name("SCIRXINTB_ISR")
    3605                      .dwattr $C$DW$65, DW_AT_low_pc(_SCIRXINTB_ISR)
    3606                      .dwattr $C$DW$65, DW_AT_high_pc(0x00)
    3607                      .dwattr $C$DW$65, DW_AT_TI_symbol_name("_SCIRXINTB_ISR")
    3608                      .dwattr $C$DW$65, DW_AT_external
    3609                      .dwattr $C$DW$65, DW_AT_TI_begin_file("D:/work/DSP/Steering_Engine/F2833x/v141/DSP2833x_common/source
    3610                      .dwattr $C$DW$65, DW_AT_TI_begin_line(0x3b0)
    3611                      .dwattr $C$DW$65, DW_AT_TI_begin_column(0x10)
    3612                      .dwattr $C$DW$65, DW_AT_TI_interrupt
TMS320C2000 Assembler PC v15.12.1 Sat Jun 25 21:32:07 2016

Tools Copyright (c) 1996-2015 Texas Instruments Incorporated
C:\Users\RJKJ_ZGH\AppData\Local\Temp\0832410                         PAGE   69

    3613                      .dwattr $C$DW$65, DW_AT_TI_max_frame_size(-6)
    3614                      .dwpsn  file "D:/work/DSP/Steering_Engine/F2833x/v141/DSP2833x_common/source/DSP2833x_DefaultIsr.c",l
    3615              
    3616                      .dwfde $C$DW$CIE, _SCIRXINTB_ISR
    3617              
    3618              ;***************************************************************
    3619              ;* FNAME: _SCIRXINTB_ISR                FR SIZE:   4           *
    3620              ;*                                                             *
    3621              ;* FUNCTION ENVIRONMENT                                        *
    3622              ;*                                                             *
    3623              ;* FUNCTION PROPERTIES                                         *
    3624              ;*                            0 Parameter,  0 Auto,  4 SOE     *
    3625              ;***************************************************************
    3626              
    3627 00000280       _SCIRXINTB_ISR:
    3628                      .dwcfi  cfa_offset, -2
    3629                      .dwcfi  save_reg_to_mem, 26, 0
    3630 00000280 761B          ASP       ; [CPU_] 
    3631 00000281 FFF0          PUSH      RB                    ; [CPU_] 
    3632                      .dwcfi  save_reg_to_mem, 73, 2
    3633                      .dwcfi  save_reg_to_mem, 74, 3
    3634                      .dwcfi  cfa_offset, -4
    3635 00000282 E200          MOV32     *SP++,STF             ; [CPU_] 
         00000283 00BD 
    3636                      .dwcfi  save_reg_to_mem, 39, 4
    3637                      .dwcfi  save_reg_to_mem, 40, 5
    3638                      .dwcfi  cfa_offset, -6
    3639 00000284 E630          SETFLG    RNDF32=1, RNDF64=1    ; [CPU_] 
         00000285 0600 
    3640 00000286 2942          CLRC      PAGE0,OVM             ; [CPU_] 
    3641 00000287 5616          CLRC      AMODE                 ; [CPU_] 
    3642                      .dwpsn  file "D:/work/DSP/Steering_Engine/F2833x/v141/DSP2833x_common/source/DSP2833x_DefaultIsr.c",l
    3643 00000288 7625        ESTOP0
    3644 00000289       $C$L65:    
    3645                      .dwpsn  file "D:/work/DSP/Steering_Engine/F2833x/v141/DSP2833x_common/source/DSP2833x_DefaultIsr.c",l
    3646 00000289 6F00          B         $C$L65,UNC            ; [CPU_] |954| 
    3647                      ; branch occurs ; [] |954| 
    3648                      .dwattr $C$DW$65, DW_AT_TI_end_file("D:/work/DSP/Steering_Engine/F2833x/v141/DSP2833x_common/source/D
    3649                      .dwattr $C$DW$65, DW_AT_TI_end_line(0x3bc)
    3650                      .dwattr $C$DW$65, DW_AT_TI_end_column(0x01)
    3651                      .dwendentry
    3652                      .dwendtag $C$DW$65
    3653              
    3654 0000028a               .sect   ".text:retain"
    3655                      .retain
    3656                      .retainrefs
    3657                      .global _SCITXINTB_ISR
    3658              
    3659              $C$DW$66        .dwtag  DW_TAG_subprogram
    3660                      .dwattr $C$DW$66, DW_AT_name("SCITXINTB_ISR")
    3661                      .dwattr $C$DW$66, DW_AT_low_pc(_SCITXINTB_ISR)
    3662                      .dwattr $C$DW$66, DW_AT_high_pc(0x00)
    3663                      .dwattr $C$DW$66, DW_AT_TI_symbol_name("_SCITXINTB_ISR")
    3664                      .dwattr $C$DW$66, DW_AT_external
    3665                      .dwattr $C$DW$66, DW_AT_TI_begin_file("D:/work/DSP/Steering_Engine/F2833x/v141/DSP2833x_common/source
TMS320C2000 Assembler PC v15.12.1 Sat Jun 25 21:32:07 2016

Tools Copyright (c) 1996-2015 Texas Instruments Incorporated
C:\Users\RJKJ_ZGH\AppData\Local\Temp\0832410                         PAGE   70

    3666                      .dwattr $C$DW$66, DW_AT_TI_begin_line(0x3bf)
    3667                      .dwattr $C$DW$66, DW_AT_TI_begin_column(0x10)
    3668                      .dwattr $C$DW$66, DW_AT_TI_interrupt
    3669                      .dwattr $C$DW$66, DW_AT_TI_max_frame_size(-6)
    3670                      .dwpsn  file "D:/work/DSP/Steering_Engine/F2833x/v141/DSP2833x_common/source/DSP2833x_DefaultIsr.c",l
    3671              
    3672                      .dwfde $C$DW$CIE, _SCITXINTB_ISR
    3673              
    3674              ;***************************************************************
    3675              ;* FNAME: _SCITXINTB_ISR                FR SIZE:   4           *
    3676              ;*                                                             *
    3677              ;* FUNCTION ENVIRONMENT                                        *
    3678              ;*                                                             *
    3679              ;* FUNCTION PROPERTIES                                         *
    3680              ;*                            0 Parameter,  0 Auto,  4 SOE     *
    3681              ;***************************************************************
    3682              
    3683 0000028a       _SCITXINTB_ISR:
    3684                      .dwcfi  cfa_offset, -2
    3685                      .dwcfi  save_reg_to_mem, 26, 0
    3686 0000028a 761B          ASP       ; [CPU_] 
    3687 0000028b FFF0          PUSH      RB                    ; [CPU_] 
    3688                      .dwcfi  save_reg_to_mem, 73, 2
    3689                      .dwcfi  save_reg_to_mem, 74, 3
    3690                      .dwcfi  cfa_offset, -4
    3691 0000028c E200          MOV32     *SP++,STF             ; [CPU_] 
         0000028d 00BD 
    3692                      .dwcfi  save_reg_to_mem, 39, 4
    3693                      .dwcfi  save_reg_to_mem, 40, 5
    3694                      .dwcfi  cfa_offset, -6
    3695 0000028e E630          SETFLG    RNDF32=1, RNDF64=1    ; [CPU_] 
         0000028f 0600 
    3696 00000290 2942          CLRC      PAGE0,OVM             ; [CPU_] 
    3697 00000291 5616          CLRC      AMODE                 ; [CPU_] 
    3698                      .dwpsn  file "D:/work/DSP/Steering_Engine/F2833x/v141/DSP2833x_common/source/DSP2833x_DefaultIsr.c",l
    3699 00000292 7625        ESTOP0
    3700 00000293       $C$L66:    
    3701                      .dwpsn  file "D:/work/DSP/Steering_Engine/F2833x/v141/DSP2833x_common/source/DSP2833x_DefaultIsr.c",l
    3702 00000293 6F00          B         $C$L66,UNC            ; [CPU_] |969| 
    3703                      ; branch occurs ; [] |969| 
    3704                      .dwattr $C$DW$66, DW_AT_TI_end_file("D:/work/DSP/Steering_Engine/F2833x/v141/DSP2833x_common/source/D
    3705                      .dwattr $C$DW$66, DW_AT_TI_end_line(0x3cb)
    3706                      .dwattr $C$DW$66, DW_AT_TI_end_column(0x01)
    3707                      .dwendentry
    3708                      .dwendtag $C$DW$66
    3709              
    3710 00000294               .sect   ".text:retain"
    3711                      .retain
    3712                      .retainrefs
    3713                      .global _ECAN0INTA_ISR
    3714              
    3715              $C$DW$67        .dwtag  DW_TAG_subprogram
    3716                      .dwattr $C$DW$67, DW_AT_name("ECAN0INTA_ISR")
    3717                      .dwattr $C$DW$67, DW_AT_low_pc(_ECAN0INTA_ISR)
    3718                      .dwattr $C$DW$67, DW_AT_high_pc(0x00)
TMS320C2000 Assembler PC v15.12.1 Sat Jun 25 21:32:07 2016

Tools Copyright (c) 1996-2015 Texas Instruments Incorporated
C:\Users\RJKJ_ZGH\AppData\Local\Temp\0832410                         PAGE   71

    3719                      .dwattr $C$DW$67, DW_AT_TI_symbol_name("_ECAN0INTA_ISR")
    3720                      .dwattr $C$DW$67, DW_AT_external
    3721                      .dwattr $C$DW$67, DW_AT_TI_begin_file("D:/work/DSP/Steering_Engine/F2833x/v141/DSP2833x_common/source
    3722                      .dwattr $C$DW$67, DW_AT_TI_begin_line(0x3ce)
    3723                      .dwattr $C$DW$67, DW_AT_TI_begin_column(0x10)
    3724                      .dwattr $C$DW$67, DW_AT_TI_interrupt
    3725                      .dwattr $C$DW$67, DW_AT_TI_max_frame_size(-6)
    3726                      .dwpsn  file "D:/work/DSP/Steering_Engine/F2833x/v141/DSP2833x_common/source/DSP2833x_DefaultIsr.c",l
    3727              
    3728                      .dwfde $C$DW$CIE, _ECAN0INTA_ISR
    3729              
    3730              ;***************************************************************
    3731              ;* FNAME: _ECAN0INTA_ISR                FR SIZE:   4           *
    3732              ;*                                                             *
    3733              ;* FUNCTION ENVIRONMENT                                        *
    3734              ;*                                                             *
    3735              ;* FUNCTION PROPERTIES                                         *
    3736              ;*                            0 Parameter,  0 Auto,  4 SOE     *
    3737              ;***************************************************************
    3738              
    3739 00000294       _ECAN0INTA_ISR:
    3740                      .dwcfi  cfa_offset, -2
    3741                      .dwcfi  save_reg_to_mem, 26, 0
    3742 00000294 761B          ASP       ; [CPU_] 
    3743 00000295 FFF0          PUSH      RB                    ; [CPU_] 
    3744                      .dwcfi  save_reg_to_mem, 73, 2
    3745                      .dwcfi  save_reg_to_mem, 74, 3
    3746                      .dwcfi  cfa_offset, -4
    3747 00000296 E200          MOV32     *SP++,STF             ; [CPU_] 
         00000297 00BD 
    3748                      .dwcfi  save_reg_to_mem, 39, 4
    3749                      .dwcfi  save_reg_to_mem, 40, 5
    3750                      .dwcfi  cfa_offset, -6
    3751 00000298 E630          SETFLG    RNDF32=1, RNDF64=1    ; [CPU_] 
         00000299 0600 
    3752 0000029a 2942          CLRC      PAGE0,OVM             ; [CPU_] 
    3753 0000029b 5616          CLRC      AMODE                 ; [CPU_] 
    3754                      .dwpsn  file "D:/work/DSP/Steering_Engine/F2833x/v141/DSP2833x_common/source/DSP2833x_DefaultIsr.c",l
    3755 0000029c 7625        ESTOP0
    3756 0000029d       $C$L67:    
    3757                      .dwpsn  file "D:/work/DSP/Steering_Engine/F2833x/v141/DSP2833x_common/source/DSP2833x_DefaultIsr.c",l
    3758 0000029d 6F00          B         $C$L67,UNC            ; [CPU_] |984| 
    3759                      ; branch occurs ; [] |984| 
    3760                      .dwattr $C$DW$67, DW_AT_TI_end_file("D:/work/DSP/Steering_Engine/F2833x/v141/DSP2833x_common/source/D
    3761                      .dwattr $C$DW$67, DW_AT_TI_end_line(0x3da)
    3762                      .dwattr $C$DW$67, DW_AT_TI_end_column(0x01)
    3763                      .dwendentry
    3764                      .dwendtag $C$DW$67
    3765              
    3766 0000029e               .sect   ".text:retain"
    3767                      .retain
    3768                      .retainrefs
    3769                      .global _ECAN1INTA_ISR
    3770              
    3771              $C$DW$68        .dwtag  DW_TAG_subprogram
TMS320C2000 Assembler PC v15.12.1 Sat Jun 25 21:32:07 2016

Tools Copyright (c) 1996-2015 Texas Instruments Incorporated
C:\Users\RJKJ_ZGH\AppData\Local\Temp\0832410                         PAGE   72

    3772                      .dwattr $C$DW$68, DW_AT_name("ECAN1INTA_ISR")
    3773                      .dwattr $C$DW$68, DW_AT_low_pc(_ECAN1INTA_ISR)
    3774                      .dwattr $C$DW$68, DW_AT_high_pc(0x00)
    3775                      .dwattr $C$DW$68, DW_AT_TI_symbol_name("_ECAN1INTA_ISR")
    3776                      .dwattr $C$DW$68, DW_AT_external
    3777                      .dwattr $C$DW$68, DW_AT_TI_begin_file("D:/work/DSP/Steering_Engine/F2833x/v141/DSP2833x_common/source
    3778                      .dwattr $C$DW$68, DW_AT_TI_begin_line(0x3dd)
    3779                      .dwattr $C$DW$68, DW_AT_TI_begin_column(0x10)
    3780                      .dwattr $C$DW$68, DW_AT_TI_interrupt
    3781                      .dwattr $C$DW$68, DW_AT_TI_max_frame_size(-6)
    3782                      .dwpsn  file "D:/work/DSP/Steering_Engine/F2833x/v141/DSP2833x_common/source/DSP2833x_DefaultIsr.c",l
    3783              
    3784                      .dwfde $C$DW$CIE, _ECAN1INTA_ISR
    3785              
    3786              ;***************************************************************
    3787              ;* FNAME: _ECAN1INTA_ISR                FR SIZE:   4           *
    3788              ;*                                                             *
    3789              ;* FUNCTION ENVIRONMENT                                        *
    3790              ;*                                                             *
    3791              ;* FUNCTION PROPERTIES                                         *
    3792              ;*                            0 Parameter,  0 Auto,  4 SOE     *
    3793              ;***************************************************************
    3794              
    3795 0000029e       _ECAN1INTA_ISR:
    3796                      .dwcfi  cfa_offset, -2
    3797                      .dwcfi  save_reg_to_mem, 26, 0
    3798 0000029e 761B          ASP       ; [CPU_] 
    3799 0000029f FFF0          PUSH      RB                    ; [CPU_] 
    3800                      .dwcfi  save_reg_to_mem, 73, 2
    3801                      .dwcfi  save_reg_to_mem, 74, 3
    3802                      .dwcfi  cfa_offset, -4
    3803 000002a0 E200          MOV32     *SP++,STF             ; [CPU_] 
         000002a1 00BD 
    3804                      .dwcfi  save_reg_to_mem, 39, 4
    3805                      .dwcfi  save_reg_to_mem, 40, 5
    3806                      .dwcfi  cfa_offset, -6
    3807 000002a2 E630          SETFLG    RNDF32=1, RNDF64=1    ; [CPU_] 
         000002a3 0600 
    3808 000002a4 2942          CLRC      PAGE0,OVM             ; [CPU_] 
    3809 000002a5 5616          CLRC      AMODE                 ; [CPU_] 
    3810                      .dwpsn  file "D:/work/DSP/Steering_Engine/F2833x/v141/DSP2833x_common/source/DSP2833x_DefaultIsr.c",l
    3811 000002a6 7625        ESTOP0
    3812 000002a7       $C$L68:    
    3813                      .dwpsn  file "D:/work/DSP/Steering_Engine/F2833x/v141/DSP2833x_common/source/DSP2833x_DefaultIsr.c",l
    3814 000002a7 6F00          B         $C$L68,UNC            ; [CPU_] |999| 
    3815                      ; branch occurs ; [] |999| 
    3816                      .dwattr $C$DW$68, DW_AT_TI_end_file("D:/work/DSP/Steering_Engine/F2833x/v141/DSP2833x_common/source/D
    3817                      .dwattr $C$DW$68, DW_AT_TI_end_line(0x3e9)
    3818                      .dwattr $C$DW$68, DW_AT_TI_end_column(0x01)
    3819                      .dwendentry
    3820                      .dwendtag $C$DW$68
    3821              
    3822 000002a8               .sect   ".text:retain"
    3823                      .retain
    3824                      .retainrefs
TMS320C2000 Assembler PC v15.12.1 Sat Jun 25 21:32:07 2016

Tools Copyright (c) 1996-2015 Texas Instruments Incorporated
C:\Users\RJKJ_ZGH\AppData\Local\Temp\0832410                         PAGE   73

    3825                      .global _ECAN0INTB_ISR
    3826              
    3827              $C$DW$69        .dwtag  DW_TAG_subprogram
    3828                      .dwattr $C$DW$69, DW_AT_name("ECAN0INTB_ISR")
    3829                      .dwattr $C$DW$69, DW_AT_low_pc(_ECAN0INTB_ISR)
    3830                      .dwattr $C$DW$69, DW_AT_high_pc(0x00)
    3831                      .dwattr $C$DW$69, DW_AT_TI_symbol_name("_ECAN0INTB_ISR")
    3832                      .dwattr $C$DW$69, DW_AT_external
    3833                      .dwattr $C$DW$69, DW_AT_TI_begin_file("D:/work/DSP/Steering_Engine/F2833x/v141/DSP2833x_common/source
    3834                      .dwattr $C$DW$69, DW_AT_TI_begin_line(0x3ec)
    3835                      .dwattr $C$DW$69, DW_AT_TI_begin_column(0x10)
    3836                      .dwattr $C$DW$69, DW_AT_TI_interrupt
    3837                      .dwattr $C$DW$69, DW_AT_TI_max_frame_size(-6)
    3838                      .dwpsn  file "D:/work/DSP/Steering_Engine/F2833x/v141/DSP2833x_common/source/DSP2833x_DefaultIsr.c",l
    3839              
    3840                      .dwfde $C$DW$CIE, _ECAN0INTB_ISR
    3841              
    3842              ;***************************************************************
    3843              ;* FNAME: _ECAN0INTB_ISR                FR SIZE:   4           *
    3844              ;*                                                             *
    3845              ;* FUNCTION ENVIRONMENT                                        *
    3846              ;*                                                             *
    3847              ;* FUNCTION PROPERTIES                                         *
    3848              ;*                            0 Parameter,  0 Auto,  4 SOE     *
    3849              ;***************************************************************
    3850              
    3851 000002a8       _ECAN0INTB_ISR:
    3852                      .dwcfi  cfa_offset, -2
    3853                      .dwcfi  save_reg_to_mem, 26, 0
    3854 000002a8 761B          ASP       ; [CPU_] 
    3855 000002a9 FFF0          PUSH      RB                    ; [CPU_] 
    3856                      .dwcfi  save_reg_to_mem, 73, 2
    3857                      .dwcfi  save_reg_to_mem, 74, 3
    3858                      .dwcfi  cfa_offset, -4
    3859 000002aa E200          MOV32     *SP++,STF             ; [CPU_] 
         000002ab 00BD 
    3860                      .dwcfi  save_reg_to_mem, 39, 4
    3861                      .dwcfi  save_reg_to_mem, 40, 5
    3862                      .dwcfi  cfa_offset, -6
    3863 000002ac E630          SETFLG    RNDF32=1, RNDF64=1    ; [CPU_] 
         000002ad 0600 
    3864 000002ae 2942          CLRC      PAGE0,OVM             ; [CPU_] 
    3865 000002af 5616          CLRC      AMODE                 ; [CPU_] 
    3866                      .dwpsn  file "D:/work/DSP/Steering_Engine/F2833x/v141/DSP2833x_common/source/DSP2833x_DefaultIsr.c",l
    3867 000002b0 7625        ESTOP0
    3868 000002b1       $C$L69:    
    3869                      .dwpsn  file "D:/work/DSP/Steering_Engine/F2833x/v141/DSP2833x_common/source/DSP2833x_DefaultIsr.c",l
    3870 000002b1 6F00          B         $C$L69,UNC            ; [CPU_] |1014| 
    3871                      ; branch occurs ; [] |1014| 
    3872                      .dwattr $C$DW$69, DW_AT_TI_end_file("D:/work/DSP/Steering_Engine/F2833x/v141/DSP2833x_common/source/D
    3873                      .dwattr $C$DW$69, DW_AT_TI_end_line(0x3f8)
    3874                      .dwattr $C$DW$69, DW_AT_TI_end_column(0x01)
    3875                      .dwendentry
    3876                      .dwendtag $C$DW$69
    3877              
TMS320C2000 Assembler PC v15.12.1 Sat Jun 25 21:32:07 2016

Tools Copyright (c) 1996-2015 Texas Instruments Incorporated
C:\Users\RJKJ_ZGH\AppData\Local\Temp\0832410                         PAGE   74

    3878 000002b2               .sect   ".text:retain"
    3879                      .retain
    3880                      .retainrefs
    3881                      .global _ECAN1INTB_ISR
    3882              
    3883              $C$DW$70        .dwtag  DW_TAG_subprogram
    3884                      .dwattr $C$DW$70, DW_AT_name("ECAN1INTB_ISR")
    3885                      .dwattr $C$DW$70, DW_AT_low_pc(_ECAN1INTB_ISR)
    3886                      .dwattr $C$DW$70, DW_AT_high_pc(0x00)
    3887                      .dwattr $C$DW$70, DW_AT_TI_symbol_name("_ECAN1INTB_ISR")
    3888                      .dwattr $C$DW$70, DW_AT_external
    3889                      .dwattr $C$DW$70, DW_AT_TI_begin_file("D:/work/DSP/Steering_Engine/F2833x/v141/DSP2833x_common/source
    3890                      .dwattr $C$DW$70, DW_AT_TI_begin_line(0x3fb)
    3891                      .dwattr $C$DW$70, DW_AT_TI_begin_column(0x10)
    3892                      .dwattr $C$DW$70, DW_AT_TI_interrupt
    3893                      .dwattr $C$DW$70, DW_AT_TI_max_frame_size(-6)
    3894                      .dwpsn  file "D:/work/DSP/Steering_Engine/F2833x/v141/DSP2833x_common/source/DSP2833x_DefaultIsr.c",l
    3895              
    3896                      .dwfde $C$DW$CIE, _ECAN1INTB_ISR
    3897              
    3898              ;***************************************************************
    3899              ;* FNAME: _ECAN1INTB_ISR                FR SIZE:   4           *
    3900              ;*                                                             *
    3901              ;* FUNCTION ENVIRONMENT                                        *
    3902              ;*                                                             *
    3903              ;* FUNCTION PROPERTIES                                         *
    3904              ;*                            0 Parameter,  0 Auto,  4 SOE     *
    3905              ;***************************************************************
    3906              
    3907 000002b2       _ECAN1INTB_ISR:
    3908                      .dwcfi  cfa_offset, -2
    3909                      .dwcfi  save_reg_to_mem, 26, 0
    3910 000002b2 761B          ASP       ; [CPU_] 
    3911 000002b3 FFF0          PUSH      RB                    ; [CPU_] 
    3912                      .dwcfi  save_reg_to_mem, 73, 2
    3913                      .dwcfi  save_reg_to_mem, 74, 3
    3914                      .dwcfi  cfa_offset, -4
    3915 000002b4 E200          MOV32     *SP++,STF             ; [CPU_] 
         000002b5 00BD 
    3916                      .dwcfi  save_reg_to_mem, 39, 4
    3917                      .dwcfi  save_reg_to_mem, 40, 5
    3918                      .dwcfi  cfa_offset, -6
    3919 000002b6 E630          SETFLG    RNDF32=1, RNDF64=1    ; [CPU_] 
         000002b7 0600 
    3920 000002b8 2942          CLRC      PAGE0,OVM             ; [CPU_] 
    3921 000002b9 5616          CLRC      AMODE                 ; [CPU_] 
    3922                      .dwpsn  file "D:/work/DSP/Steering_Engine/F2833x/v141/DSP2833x_common/source/DSP2833x_DefaultIsr.c",l
    3923 000002ba 7625        ESTOP0
    3924 000002bb       $C$L70:    
    3925                      .dwpsn  file "D:/work/DSP/Steering_Engine/F2833x/v141/DSP2833x_common/source/DSP2833x_DefaultIsr.c",l
    3926 000002bb 6F00          B         $C$L70,UNC            ; [CPU_] |1029| 
    3927                      ; branch occurs ; [] |1029| 
    3928                      .dwattr $C$DW$70, DW_AT_TI_end_file("D:/work/DSP/Steering_Engine/F2833x/v141/DSP2833x_common/source/D
    3929                      .dwattr $C$DW$70, DW_AT_TI_end_line(0x407)
    3930                      .dwattr $C$DW$70, DW_AT_TI_end_column(0x01)
TMS320C2000 Assembler PC v15.12.1 Sat Jun 25 21:32:07 2016

Tools Copyright (c) 1996-2015 Texas Instruments Incorporated
C:\Users\RJKJ_ZGH\AppData\Local\Temp\0832410                         PAGE   75

    3931                      .dwendentry
    3932                      .dwendtag $C$DW$70
    3933              
    3934 000002bc               .sect   ".text:retain"
    3935                      .retain
    3936                      .retainrefs
    3937                      .global _XINT3_ISR
    3938              
    3939              $C$DW$71        .dwtag  DW_TAG_subprogram
    3940                      .dwattr $C$DW$71, DW_AT_name("XINT3_ISR")
    3941                      .dwattr $C$DW$71, DW_AT_low_pc(_XINT3_ISR)
    3942                      .dwattr $C$DW$71, DW_AT_high_pc(0x00)
    3943                      .dwattr $C$DW$71, DW_AT_TI_symbol_name("_XINT3_ISR")
    3944                      .dwattr $C$DW$71, DW_AT_external
    3945                      .dwattr $C$DW$71, DW_AT_TI_begin_file("D:/work/DSP/Steering_Engine/F2833x/v141/DSP2833x_common/source
    3946                      .dwattr $C$DW$71, DW_AT_TI_begin_line(0x429)
    3947                      .dwattr $C$DW$71, DW_AT_TI_begin_column(0x10)
    3948                      .dwattr $C$DW$71, DW_AT_TI_interrupt
    3949                      .dwattr $C$DW$71, DW_AT_TI_max_frame_size(-6)
    3950                      .dwpsn  file "D:/work/DSP/Steering_Engine/F2833x/v141/DSP2833x_common/source/DSP2833x_DefaultIsr.c",l
    3951              
    3952                      .dwfde $C$DW$CIE, _XINT3_ISR
    3953              
    3954              ;***************************************************************
    3955              ;* FNAME: _XINT3_ISR                    FR SIZE:   4           *
    3956              ;*                                                             *
    3957              ;* FUNCTION ENVIRONMENT                                        *
    3958              ;*                                                             *
    3959              ;* FUNCTION PROPERTIES                                         *
    3960              ;*                            0 Parameter,  0 Auto,  4 SOE     *
    3961              ;***************************************************************
    3962              
    3963 000002bc       _XINT3_ISR:
    3964                      .dwcfi  cfa_offset, -2
    3965                      .dwcfi  save_reg_to_mem, 26, 0
    3966 000002bc 761B          ASP       ; [CPU_] 
    3967 000002bd FFF0          PUSH      RB                    ; [CPU_] 
    3968                      .dwcfi  save_reg_to_mem, 73, 2
    3969                      .dwcfi  save_reg_to_mem, 74, 3
    3970                      .dwcfi  cfa_offset, -4
    3971 000002be E200          MOV32     *SP++,STF             ; [CPU_] 
         000002bf 00BD 
    3972                      .dwcfi  save_reg_to_mem, 39, 4
    3973                      .dwcfi  save_reg_to_mem, 40, 5
    3974                      .dwcfi  cfa_offset, -6
    3975 000002c0 E630          SETFLG    RNDF32=1, RNDF64=1    ; [CPU_] 
         000002c1 0600 
    3976 000002c2 2942          CLRC      PAGE0,OVM             ; [CPU_] 
    3977 000002c3 5616          CLRC      AMODE                 ; [CPU_] 
    3978                      .dwpsn  file "D:/work/DSP/Steering_Engine/F2833x/v141/DSP2833x_common/source/DSP2833x_DefaultIsr.c",l
    3979 000002c4 7625        ESTOP0
    3980 000002c5       $C$L71:    
    3981                      .dwpsn  file "D:/work/DSP/Steering_Engine/F2833x/v141/DSP2833x_common/source/DSP2833x_DefaultIsr.c",l
    3982 000002c5 6F00          B         $C$L71,UNC            ; [CPU_] |1075| 
    3983                      ; branch occurs ; [] |1075| 
TMS320C2000 Assembler PC v15.12.1 Sat Jun 25 21:32:07 2016

Tools Copyright (c) 1996-2015 Texas Instruments Incorporated
C:\Users\RJKJ_ZGH\AppData\Local\Temp\0832410                         PAGE   76

    3984                      .dwattr $C$DW$71, DW_AT_TI_end_file("D:/work/DSP/Steering_Engine/F2833x/v141/DSP2833x_common/source/D
    3985                      .dwattr $C$DW$71, DW_AT_TI_end_line(0x435)
    3986                      .dwattr $C$DW$71, DW_AT_TI_end_column(0x01)
    3987                      .dwendentry
    3988                      .dwendtag $C$DW$71
    3989              
    3990 000002c6               .sect   ".text:retain"
    3991                      .retain
    3992                      .retainrefs
    3993                      .global _XINT4_ISR
    3994              
    3995              $C$DW$72        .dwtag  DW_TAG_subprogram
    3996                      .dwattr $C$DW$72, DW_AT_name("XINT4_ISR")
    3997                      .dwattr $C$DW$72, DW_AT_low_pc(_XINT4_ISR)
    3998                      .dwattr $C$DW$72, DW_AT_high_pc(0x00)
    3999                      .dwattr $C$DW$72, DW_AT_TI_symbol_name("_XINT4_ISR")
    4000                      .dwattr $C$DW$72, DW_AT_external
    4001                      .dwattr $C$DW$72, DW_AT_TI_begin_file("D:/work/DSP/Steering_Engine/F2833x/v141/DSP2833x_common/source
    4002                      .dwattr $C$DW$72, DW_AT_TI_begin_line(0x438)
    4003                      .dwattr $C$DW$72, DW_AT_TI_begin_column(0x10)
    4004                      .dwattr $C$DW$72, DW_AT_TI_interrupt
    4005                      .dwattr $C$DW$72, DW_AT_TI_max_frame_size(-6)
    4006                      .dwpsn  file "D:/work/DSP/Steering_Engine/F2833x/v141/DSP2833x_common/source/DSP2833x_DefaultIsr.c",l
    4007              
    4008                      .dwfde $C$DW$CIE, _XINT4_ISR
    4009              
    4010              ;***************************************************************
    4011              ;* FNAME: _XINT4_ISR                    FR SIZE:   4           *
    4012              ;*                                                             *
    4013              ;* FUNCTION ENVIRONMENT                                        *
    4014              ;*                                                             *
    4015              ;* FUNCTION PROPERTIES                                         *
    4016              ;*                            0 Parameter,  0 Auto,  4 SOE     *
    4017              ;***************************************************************
    4018              
    4019 000002c6       _XINT4_ISR:
    4020                      .dwcfi  cfa_offset, -2
    4021                      .dwcfi  save_reg_to_mem, 26, 0
    4022 000002c6 761B          ASP       ; [CPU_] 
    4023 000002c7 FFF0          PUSH      RB                    ; [CPU_] 
    4024                      .dwcfi  save_reg_to_mem, 73, 2
    4025                      .dwcfi  save_reg_to_mem, 74, 3
    4026                      .dwcfi  cfa_offset, -4
    4027 000002c8 E200          MOV32     *SP++,STF             ; [CPU_] 
         000002c9 00BD 
    4028                      .dwcfi  save_reg_to_mem, 39, 4
    4029                      .dwcfi  save_reg_to_mem, 40, 5
    4030                      .dwcfi  cfa_offset, -6
    4031 000002ca E630          SETFLG    RNDF32=1, RNDF64=1    ; [CPU_] 
         000002cb 0600 
    4032 000002cc 2942          CLRC      PAGE0,OVM             ; [CPU_] 
    4033 000002cd 5616          CLRC      AMODE                 ; [CPU_] 
    4034                      .dwpsn  file "D:/work/DSP/Steering_Engine/F2833x/v141/DSP2833x_common/source/DSP2833x_DefaultIsr.c",l
    4035 000002ce 7625        ESTOP0
    4036 000002cf       $C$L72:    
TMS320C2000 Assembler PC v15.12.1 Sat Jun 25 21:32:07 2016

Tools Copyright (c) 1996-2015 Texas Instruments Incorporated
C:\Users\RJKJ_ZGH\AppData\Local\Temp\0832410                         PAGE   77

    4037                      .dwpsn  file "D:/work/DSP/Steering_Engine/F2833x/v141/DSP2833x_common/source/DSP2833x_DefaultIsr.c",l
    4038 000002cf 6F00          B         $C$L72,UNC            ; [CPU_] |1090| 
    4039                      ; branch occurs ; [] |1090| 
    4040                      .dwattr $C$DW$72, DW_AT_TI_end_file("D:/work/DSP/Steering_Engine/F2833x/v141/DSP2833x_common/source/D
    4041                      .dwattr $C$DW$72, DW_AT_TI_end_line(0x444)
    4042                      .dwattr $C$DW$72, DW_AT_TI_end_column(0x01)
    4043                      .dwendentry
    4044                      .dwendtag $C$DW$72
    4045              
    4046 000002d0               .sect   ".text:retain"
    4047                      .retain
    4048                      .retainrefs
    4049                      .global _XINT5_ISR
    4050              
    4051              $C$DW$73        .dwtag  DW_TAG_subprogram
    4052                      .dwattr $C$DW$73, DW_AT_name("XINT5_ISR")
    4053                      .dwattr $C$DW$73, DW_AT_low_pc(_XINT5_ISR)
    4054                      .dwattr $C$DW$73, DW_AT_high_pc(0x00)
    4055                      .dwattr $C$DW$73, DW_AT_TI_symbol_name("_XINT5_ISR")
    4056                      .dwattr $C$DW$73, DW_AT_external
    4057                      .dwattr $C$DW$73, DW_AT_TI_begin_file("D:/work/DSP/Steering_Engine/F2833x/v141/DSP2833x_common/source
    4058                      .dwattr $C$DW$73, DW_AT_TI_begin_line(0x447)
    4059                      .dwattr $C$DW$73, DW_AT_TI_begin_column(0x10)
    4060                      .dwattr $C$DW$73, DW_AT_TI_interrupt
    4061                      .dwattr $C$DW$73, DW_AT_TI_max_frame_size(-6)
    4062                      .dwpsn  file "D:/work/DSP/Steering_Engine/F2833x/v141/DSP2833x_common/source/DSP2833x_DefaultIsr.c",l
    4063              
    4064                      .dwfde $C$DW$CIE, _XINT5_ISR
    4065              
    4066              ;***************************************************************
    4067              ;* FNAME: _XINT5_ISR                    FR SIZE:   4           *
    4068              ;*                                                             *
    4069              ;* FUNCTION ENVIRONMENT                                        *
    4070              ;*                                                             *
    4071              ;* FUNCTION PROPERTIES                                         *
    4072              ;*                            0 Parameter,  0 Auto,  4 SOE     *
    4073              ;***************************************************************
    4074              
    4075 000002d0       _XINT5_ISR:
    4076                      .dwcfi  cfa_offset, -2
    4077                      .dwcfi  save_reg_to_mem, 26, 0
    4078 000002d0 761B          ASP       ; [CPU_] 
    4079 000002d1 FFF0          PUSH      RB                    ; [CPU_] 
    4080                      .dwcfi  save_reg_to_mem, 73, 2
    4081                      .dwcfi  save_reg_to_mem, 74, 3
    4082                      .dwcfi  cfa_offset, -4
    4083 000002d2 E200          MOV32     *SP++,STF             ; [CPU_] 
         000002d3 00BD 
    4084                      .dwcfi  save_reg_to_mem, 39, 4
    4085                      .dwcfi  save_reg_to_mem, 40, 5
    4086                      .dwcfi  cfa_offset, -6
    4087 000002d4 E630          SETFLG    RNDF32=1, RNDF64=1    ; [CPU_] 
         000002d5 0600 
    4088 000002d6 2942          CLRC      PAGE0,OVM             ; [CPU_] 
    4089 000002d7 5616          CLRC      AMODE                 ; [CPU_] 
TMS320C2000 Assembler PC v15.12.1 Sat Jun 25 21:32:07 2016

Tools Copyright (c) 1996-2015 Texas Instruments Incorporated
C:\Users\RJKJ_ZGH\AppData\Local\Temp\0832410                         PAGE   78

    4090                      .dwpsn  file "D:/work/DSP/Steering_Engine/F2833x/v141/DSP2833x_common/source/DSP2833x_DefaultIsr.c",l
    4091 000002d8 7625        ESTOP0
    4092 000002d9       $C$L73:    
    4093                      .dwpsn  file "D:/work/DSP/Steering_Engine/F2833x/v141/DSP2833x_common/source/DSP2833x_DefaultIsr.c",l
    4094 000002d9 6F00          B         $C$L73,UNC            ; [CPU_] |1105| 
    4095                      ; branch occurs ; [] |1105| 
    4096                      .dwattr $C$DW$73, DW_AT_TI_end_file("D:/work/DSP/Steering_Engine/F2833x/v141/DSP2833x_common/source/D
    4097                      .dwattr $C$DW$73, DW_AT_TI_end_line(0x453)
    4098                      .dwattr $C$DW$73, DW_AT_TI_end_column(0x01)
    4099                      .dwendentry
    4100                      .dwendtag $C$DW$73
    4101              
    4102 000002da               .sect   ".text:retain"
    4103                      .retain
    4104                      .retainrefs
    4105                      .global _XINT6_ISR
    4106              
    4107              $C$DW$74        .dwtag  DW_TAG_subprogram
    4108                      .dwattr $C$DW$74, DW_AT_name("XINT6_ISR")
    4109                      .dwattr $C$DW$74, DW_AT_low_pc(_XINT6_ISR)
    4110                      .dwattr $C$DW$74, DW_AT_high_pc(0x00)
    4111                      .dwattr $C$DW$74, DW_AT_TI_symbol_name("_XINT6_ISR")
    4112                      .dwattr $C$DW$74, DW_AT_external
    4113                      .dwattr $C$DW$74, DW_AT_TI_begin_file("D:/work/DSP/Steering_Engine/F2833x/v141/DSP2833x_common/source
    4114                      .dwattr $C$DW$74, DW_AT_TI_begin_line(0x455)
    4115                      .dwattr $C$DW$74, DW_AT_TI_begin_column(0x10)
    4116                      .dwattr $C$DW$74, DW_AT_TI_interrupt
    4117                      .dwattr $C$DW$74, DW_AT_TI_max_frame_size(-6)
    4118                      .dwpsn  file "D:/work/DSP/Steering_Engine/F2833x/v141/DSP2833x_common/source/DSP2833x_DefaultIsr.c",l
    4119              
    4120                      .dwfde $C$DW$CIE, _XINT6_ISR
    4121              
    4122              ;***************************************************************
    4123              ;* FNAME: _XINT6_ISR                    FR SIZE:   4           *
    4124              ;*                                                             *
    4125              ;* FUNCTION ENVIRONMENT                                        *
    4126              ;*                                                             *
    4127              ;* FUNCTION PROPERTIES                                         *
    4128              ;*                            0 Parameter,  0 Auto,  4 SOE     *
    4129              ;***************************************************************
    4130              
    4131 000002da       _XINT6_ISR:
    4132                      .dwcfi  cfa_offset, -2
    4133                      .dwcfi  save_reg_to_mem, 26, 0
    4134 000002da 761B          ASP       ; [CPU_] 
    4135 000002db FFF0          PUSH      RB                    ; [CPU_] 
    4136                      .dwcfi  save_reg_to_mem, 73, 2
    4137                      .dwcfi  save_reg_to_mem, 74, 3
    4138                      .dwcfi  cfa_offset, -4
    4139 000002dc E200          MOV32     *SP++,STF             ; [CPU_] 
         000002dd 00BD 
    4140                      .dwcfi  save_reg_to_mem, 39, 4
    4141                      .dwcfi  save_reg_to_mem, 40, 5
    4142                      .dwcfi  cfa_offset, -6
    4143 000002de E630          SETFLG    RNDF32=1, RNDF64=1    ; [CPU_] 
TMS320C2000 Assembler PC v15.12.1 Sat Jun 25 21:32:07 2016

Tools Copyright (c) 1996-2015 Texas Instruments Incorporated
C:\Users\RJKJ_ZGH\AppData\Local\Temp\0832410                         PAGE   79

         000002df 0600 
    4144 000002e0 2942          CLRC      PAGE0,OVM             ; [CPU_] 
    4145 000002e1 5616          CLRC      AMODE                 ; [CPU_] 
    4146                      .dwpsn  file "D:/work/DSP/Steering_Engine/F2833x/v141/DSP2833x_common/source/DSP2833x_DefaultIsr.c",l
    4147 000002e2 7625        ESTOP0
    4148 000002e3       $C$L74:    
    4149                      .dwpsn  file "D:/work/DSP/Steering_Engine/F2833x/v141/DSP2833x_common/source/DSP2833x_DefaultIsr.c",l
    4150 000002e3 6F00          B         $C$L74,UNC            ; [CPU_] |1119| 
    4151                      ; branch occurs ; [] |1119| 
    4152                      .dwattr $C$DW$74, DW_AT_TI_end_file("D:/work/DSP/Steering_Engine/F2833x/v141/DSP2833x_common/source/D
    4153                      .dwattr $C$DW$74, DW_AT_TI_end_line(0x461)
    4154                      .dwattr $C$DW$74, DW_AT_TI_end_column(0x01)
    4155                      .dwendentry
    4156                      .dwendtag $C$DW$74
    4157              
    4158 000002e4               .sect   ".text:retain"
    4159                      .retain
    4160                      .retainrefs
    4161                      .global _XINT7_ISR
    4162              
    4163              $C$DW$75        .dwtag  DW_TAG_subprogram
    4164                      .dwattr $C$DW$75, DW_AT_name("XINT7_ISR")
    4165                      .dwattr $C$DW$75, DW_AT_low_pc(_XINT7_ISR)
    4166                      .dwattr $C$DW$75, DW_AT_high_pc(0x00)
    4167                      .dwattr $C$DW$75, DW_AT_TI_symbol_name("_XINT7_ISR")
    4168                      .dwattr $C$DW$75, DW_AT_external
    4169                      .dwattr $C$DW$75, DW_AT_TI_begin_file("D:/work/DSP/Steering_Engine/F2833x/v141/DSP2833x_common/source
    4170                      .dwattr $C$DW$75, DW_AT_TI_begin_line(0x464)
    4171                      .dwattr $C$DW$75, DW_AT_TI_begin_column(0x10)
    4172                      .dwattr $C$DW$75, DW_AT_TI_interrupt
    4173                      .dwattr $C$DW$75, DW_AT_TI_max_frame_size(-6)
    4174                      .dwpsn  file "D:/work/DSP/Steering_Engine/F2833x/v141/DSP2833x_common/source/DSP2833x_DefaultIsr.c",l
    4175              
    4176                      .dwfde $C$DW$CIE, _XINT7_ISR
    4177              
    4178              ;***************************************************************
    4179              ;* FNAME: _XINT7_ISR                    FR SIZE:   4           *
    4180              ;*                                                             *
    4181              ;* FUNCTION ENVIRONMENT                                        *
    4182              ;*                                                             *
    4183              ;* FUNCTION PROPERTIES                                         *
    4184              ;*                            0 Parameter,  0 Auto,  4 SOE     *
    4185              ;***************************************************************
    4186              
    4187 000002e4       _XINT7_ISR:
    4188                      .dwcfi  cfa_offset, -2
    4189                      .dwcfi  save_reg_to_mem, 26, 0
    4190 000002e4 761B          ASP       ; [CPU_] 
    4191 000002e5 FFF0          PUSH      RB                    ; [CPU_] 
    4192                      .dwcfi  save_reg_to_mem, 73, 2
    4193                      .dwcfi  save_reg_to_mem, 74, 3
    4194                      .dwcfi  cfa_offset, -4
    4195 000002e6 E200          MOV32     *SP++,STF             ; [CPU_] 
         000002e7 00BD 
    4196                      .dwcfi  save_reg_to_mem, 39, 4
TMS320C2000 Assembler PC v15.12.1 Sat Jun 25 21:32:07 2016

Tools Copyright (c) 1996-2015 Texas Instruments Incorporated
C:\Users\RJKJ_ZGH\AppData\Local\Temp\0832410                         PAGE   80

    4197                      .dwcfi  save_reg_to_mem, 40, 5
    4198                      .dwcfi  cfa_offset, -6
    4199 000002e8 E630          SETFLG    RNDF32=1, RNDF64=1    ; [CPU_] 
         000002e9 0600 
    4200 000002ea 2942          CLRC      PAGE0,OVM             ; [CPU_] 
    4201 000002eb 5616          CLRC      AMODE                 ; [CPU_] 
    4202                      .dwpsn  file "D:/work/DSP/Steering_Engine/F2833x/v141/DSP2833x_common/source/DSP2833x_DefaultIsr.c",l
    4203 000002ec 7625        ESTOP0
    4204 000002ed       $C$L75:    
    4205                      .dwpsn  file "D:/work/DSP/Steering_Engine/F2833x/v141/DSP2833x_common/source/DSP2833x_DefaultIsr.c",l
    4206 000002ed 6F00          B         $C$L75,UNC            ; [CPU_] |1134| 
    4207                      ; branch occurs ; [] |1134| 
    4208                      .dwattr $C$DW$75, DW_AT_TI_end_file("D:/work/DSP/Steering_Engine/F2833x/v141/DSP2833x_common/source/D
    4209                      .dwattr $C$DW$75, DW_AT_TI_end_line(0x470)
    4210                      .dwattr $C$DW$75, DW_AT_TI_end_column(0x01)
    4211                      .dwendentry
    4212                      .dwendtag $C$DW$75
    4213              
    4214 000002ee               .sect   ".text:retain"
    4215                      .retain
    4216                      .retainrefs
    4217                      .global _LVF_ISR
    4218              
    4219              $C$DW$76        .dwtag  DW_TAG_subprogram
    4220                      .dwattr $C$DW$76, DW_AT_name("LVF_ISR")
    4221                      .dwattr $C$DW$76, DW_AT_low_pc(_LVF_ISR)
    4222                      .dwattr $C$DW$76, DW_AT_high_pc(0x00)
    4223                      .dwattr $C$DW$76, DW_AT_TI_symbol_name("_LVF_ISR")
    4224                      .dwattr $C$DW$76, DW_AT_external
    4225                      .dwattr $C$DW$76, DW_AT_TI_begin_file("D:/work/DSP/Steering_Engine/F2833x/v141/DSP2833x_common/source
    4226                      .dwattr $C$DW$76, DW_AT_TI_begin_line(0x474)
    4227                      .dwattr $C$DW$76, DW_AT_TI_begin_column(0x10)
    4228                      .dwattr $C$DW$76, DW_AT_TI_interrupt
    4229                      .dwattr $C$DW$76, DW_AT_TI_max_frame_size(-6)
    4230                      .dwpsn  file "D:/work/DSP/Steering_Engine/F2833x/v141/DSP2833x_common/source/DSP2833x_DefaultIsr.c",l
    4231              
    4232                      .dwfde $C$DW$CIE, _LVF_ISR
    4233              
    4234              ;***************************************************************
    4235              ;* FNAME: _LVF_ISR                      FR SIZE:   4           *
    4236              ;*                                                             *
    4237              ;* FUNCTION ENVIRONMENT                                        *
    4238              ;*                                                             *
    4239              ;* FUNCTION PROPERTIES                                         *
    4240              ;*                            0 Parameter,  0 Auto,  4 SOE     *
    4241              ;***************************************************************
    4242              
    4243 000002ee       _LVF_ISR:
    4244                      .dwcfi  cfa_offset, -2
    4245                      .dwcfi  save_reg_to_mem, 26, 0
    4246 000002ee 761B          ASP       ; [CPU_] 
    4247 000002ef FFF0          PUSH      RB                    ; [CPU_] 
    4248                      .dwcfi  save_reg_to_mem, 73, 2
    4249                      .dwcfi  save_reg_to_mem, 74, 3
    4250                      .dwcfi  cfa_offset, -4
TMS320C2000 Assembler PC v15.12.1 Sat Jun 25 21:32:07 2016

Tools Copyright (c) 1996-2015 Texas Instruments Incorporated
C:\Users\RJKJ_ZGH\AppData\Local\Temp\0832410                         PAGE   81

    4251 000002f0 E200          MOV32     *SP++,STF             ; [CPU_] 
         000002f1 00BD 
    4252                      .dwcfi  save_reg_to_mem, 39, 4
    4253                      .dwcfi  save_reg_to_mem, 40, 5
    4254                      .dwcfi  cfa_offset, -6
    4255 000002f2 E630          SETFLG    RNDF32=1, RNDF64=1    ; [CPU_] 
         000002f3 0600 
    4256 000002f4 2942          CLRC      PAGE0,OVM             ; [CPU_] 
    4257 000002f5 5616          CLRC      AMODE                 ; [CPU_] 
    4258                      .dwpsn  file "D:/work/DSP/Steering_Engine/F2833x/v141/DSP2833x_common/source/DSP2833x_DefaultIsr.c",l
    4259 000002f6 7625        ESTOP0
    4260 000002f7       $C$L76:    
    4261                      .dwpsn  file "D:/work/DSP/Steering_Engine/F2833x/v141/DSP2833x_common/source/DSP2833x_DefaultIsr.c",l
    4262 000002f7 6F00          B         $C$L76,UNC            ; [CPU_] |1150| 
    4263                      ; branch occurs ; [] |1150| 
    4264                      .dwattr $C$DW$76, DW_AT_TI_end_file("D:/work/DSP/Steering_Engine/F2833x/v141/DSP2833x_common/source/D
    4265                      .dwattr $C$DW$76, DW_AT_TI_end_line(0x480)
    4266                      .dwattr $C$DW$76, DW_AT_TI_end_column(0x01)
    4267                      .dwendentry
    4268                      .dwendtag $C$DW$76
    4269              
    4270 000002f8               .sect   ".text:retain"
    4271                      .retain
    4272                      .retainrefs
    4273                      .global _LUF_ISR
    4274              
    4275              $C$DW$77        .dwtag  DW_TAG_subprogram
    4276                      .dwattr $C$DW$77, DW_AT_name("LUF_ISR")
    4277                      .dwattr $C$DW$77, DW_AT_low_pc(_LUF_ISR)
    4278                      .dwattr $C$DW$77, DW_AT_high_pc(0x00)
    4279                      .dwattr $C$DW$77, DW_AT_TI_symbol_name("_LUF_ISR")
    4280                      .dwattr $C$DW$77, DW_AT_external
    4281                      .dwattr $C$DW$77, DW_AT_TI_begin_file("D:/work/DSP/Steering_Engine/F2833x/v141/DSP2833x_common/source
    4282                      .dwattr $C$DW$77, DW_AT_TI_begin_line(0x482)
    4283                      .dwattr $C$DW$77, DW_AT_TI_begin_column(0x10)
    4284                      .dwattr $C$DW$77, DW_AT_TI_interrupt
    4285                      .dwattr $C$DW$77, DW_AT_TI_max_frame_size(-6)
    4286                      .dwpsn  file "D:/work/DSP/Steering_Engine/F2833x/v141/DSP2833x_common/source/DSP2833x_DefaultIsr.c",l
    4287              
    4288                      .dwfde $C$DW$CIE, _LUF_ISR
    4289              
    4290              ;***************************************************************
    4291              ;* FNAME: _LUF_ISR                      FR SIZE:   4           *
    4292              ;*                                                             *
    4293              ;* FUNCTION ENVIRONMENT                                        *
    4294              ;*                                                             *
    4295              ;* FUNCTION PROPERTIES                                         *
    4296              ;*                            0 Parameter,  0 Auto,  4 SOE     *
    4297              ;***************************************************************
    4298              
    4299 000002f8       _LUF_ISR:
    4300                      .dwcfi  cfa_offset, -2
    4301                      .dwcfi  save_reg_to_mem, 26, 0
    4302 000002f8 761B          ASP       ; [CPU_] 
    4303 000002f9 FFF0          PUSH      RB                    ; [CPU_] 
TMS320C2000 Assembler PC v15.12.1 Sat Jun 25 21:32:07 2016

Tools Copyright (c) 1996-2015 Texas Instruments Incorporated
C:\Users\RJKJ_ZGH\AppData\Local\Temp\0832410                         PAGE   82

    4304                      .dwcfi  save_reg_to_mem, 73, 2
    4305                      .dwcfi  save_reg_to_mem, 74, 3
    4306                      .dwcfi  cfa_offset, -4
    4307 000002fa E200          MOV32     *SP++,STF             ; [CPU_] 
         000002fb 00BD 
    4308                      .dwcfi  save_reg_to_mem, 39, 4
    4309                      .dwcfi  save_reg_to_mem, 40, 5
    4310                      .dwcfi  cfa_offset, -6
    4311 000002fc E630          SETFLG    RNDF32=1, RNDF64=1    ; [CPU_] 
         000002fd 0600 
    4312 000002fe 2942          CLRC      PAGE0,OVM             ; [CPU_] 
    4313 000002ff 5616          CLRC      AMODE                 ; [CPU_] 
    4314                      .dwpsn  file "D:/work/DSP/Steering_Engine/F2833x/v141/DSP2833x_common/source/DSP2833x_DefaultIsr.c",l
    4315 00000300 7625        ESTOP0
    4316 00000301       $C$L77:    
    4317                      .dwpsn  file "D:/work/DSP/Steering_Engine/F2833x/v141/DSP2833x_common/source/DSP2833x_DefaultIsr.c",l
    4318 00000301 6F00          B         $C$L77,UNC            ; [CPU_] |1164| 
    4319                      ; branch occurs ; [] |1164| 
    4320                      .dwattr $C$DW$77, DW_AT_TI_end_file("D:/work/DSP/Steering_Engine/F2833x/v141/DSP2833x_common/source/D
    4321                      .dwattr $C$DW$77, DW_AT_TI_end_line(0x48e)
    4322                      .dwattr $C$DW$77, DW_AT_TI_end_column(0x01)
    4323                      .dwendentry
    4324                      .dwendtag $C$DW$77
    4325              
    4326 00000302               .sect   ".text:retain"
    4327                      .retain
    4328                      .retainrefs
    4329                      .global _PIE_RESERVED
    4330              
    4331              $C$DW$78        .dwtag  DW_TAG_subprogram
    4332                      .dwattr $C$DW$78, DW_AT_name("PIE_RESERVED")
    4333                      .dwattr $C$DW$78, DW_AT_low_pc(_PIE_RESERVED)
    4334                      .dwattr $C$DW$78, DW_AT_high_pc(0x00)
    4335                      .dwattr $C$DW$78, DW_AT_TI_symbol_name("_PIE_RESERVED")
    4336                      .dwattr $C$DW$78, DW_AT_external
    4337                      .dwattr $C$DW$78, DW_AT_TI_begin_file("D:/work/DSP/Steering_Engine/F2833x/v141/DSP2833x_common/source
    4338                      .dwattr $C$DW$78, DW_AT_TI_begin_line(0x494)
    4339                      .dwattr $C$DW$78, DW_AT_TI_begin_column(0x10)
    4340                      .dwattr $C$DW$78, DW_AT_TI_interrupt
    4341                      .dwattr $C$DW$78, DW_AT_TI_max_frame_size(-6)
    4342                      .dwpsn  file "D:/work/DSP/Steering_Engine/F2833x/v141/DSP2833x_common/source/DSP2833x_DefaultIsr.c",l
    4343              
    4344                      .dwfde $C$DW$CIE, _PIE_RESERVED
    4345              
    4346              ;***************************************************************
    4347              ;* FNAME: _PIE_RESERVED                 FR SIZE:   4           *
    4348              ;*                                                             *
    4349              ;* FUNCTION ENVIRONMENT                                        *
    4350              ;*                                                             *
    4351              ;* FUNCTION PROPERTIES                                         *
    4352              ;*                            0 Parameter,  0 Auto,  4 SOE     *
    4353              ;***************************************************************
    4354              
    4355 00000302       _PIE_RESERVED:
    4356                      .dwcfi  cfa_offset, -2
TMS320C2000 Assembler PC v15.12.1 Sat Jun 25 21:32:07 2016

Tools Copyright (c) 1996-2015 Texas Instruments Incorporated
C:\Users\RJKJ_ZGH\AppData\Local\Temp\0832410                         PAGE   83

    4357                      .dwcfi  save_reg_to_mem, 26, 0
    4358 00000302 761B          ASP       ; [CPU_] 
    4359 00000303 FFF0          PUSH      RB                    ; [CPU_] 
    4360                      .dwcfi  save_reg_to_mem, 73, 2
    4361                      .dwcfi  save_reg_to_mem, 74, 3
    4362                      .dwcfi  cfa_offset, -4
    4363 00000304 E200          MOV32     *SP++,STF             ; [CPU_] 
         00000305 00BD 
    4364                      .dwcfi  save_reg_to_mem, 39, 4
    4365                      .dwcfi  save_reg_to_mem, 40, 5
    4366                      .dwcfi  cfa_offset, -6
    4367 00000306 E630          SETFLG    RNDF32=1, RNDF64=1    ; [CPU_] 
         00000307 0600 
    4368 00000308 2942          CLRC      PAGE0,OVM             ; [CPU_] 
    4369 00000309 5616          CLRC      AMODE                 ; [CPU_] 
    4370                      .dwpsn  file "D:/work/DSP/Steering_Engine/F2833x/v141/DSP2833x_common/source/DSP2833x_DefaultIsr.c",l
    4371 0000030a 7625        ESTOP0
    4372 0000030b       $C$L78:    
    4373                      .dwpsn  file "D:/work/DSP/Steering_Engine/F2833x/v141/DSP2833x_common/source/DSP2833x_DefaultIsr.c",l
    4374 0000030b 6F00          B         $C$L78,UNC            ; [CPU_] |1175| 
    4375                      ; branch occurs ; [] |1175| 
    4376                      .dwattr $C$DW$78, DW_AT_TI_end_file("D:/work/DSP/Steering_Engine/F2833x/v141/DSP2833x_common/source/D
    4377                      .dwattr $C$DW$78, DW_AT_TI_end_line(0x498)
    4378                      .dwattr $C$DW$78, DW_AT_TI_end_column(0x01)
    4379                      .dwendentry
    4380                      .dwendtag $C$DW$78
    4381              
    4382 0000030c               .sect   ".text:retain"
    4383                      .retain
    4384                      .retainrefs
    4385                      .global _rsvd_ISR
    4386              
    4387              $C$DW$79        .dwtag  DW_TAG_subprogram
    4388                      .dwattr $C$DW$79, DW_AT_name("rsvd_ISR")
    4389                      .dwattr $C$DW$79, DW_AT_low_pc(_rsvd_ISR)
    4390                      .dwattr $C$DW$79, DW_AT_high_pc(0x00)
    4391                      .dwattr $C$DW$79, DW_AT_TI_symbol_name("_rsvd_ISR")
    4392                      .dwattr $C$DW$79, DW_AT_external
    4393                      .dwattr $C$DW$79, DW_AT_TI_begin_file("D:/work/DSP/Steering_Engine/F2833x/v141/DSP2833x_common/source
    4394                      .dwattr $C$DW$79, DW_AT_TI_begin_line(0x49a)
    4395                      .dwattr $C$DW$79, DW_AT_TI_begin_column(0x10)
    4396                      .dwattr $C$DW$79, DW_AT_TI_interrupt
    4397                      .dwattr $C$DW$79, DW_AT_TI_max_frame_size(-6)
    4398                      .dwpsn  file "D:/work/DSP/Steering_Engine/F2833x/v141/DSP2833x_common/source/DSP2833x_DefaultIsr.c",l
    4399              
    4400                      .dwfde $C$DW$CIE, _rsvd_ISR
    4401              
    4402              ;***************************************************************
    4403              ;* FNAME: _rsvd_ISR                     FR SIZE:   4           *
    4404              ;*                                                             *
    4405              ;* FUNCTION ENVIRONMENT                                        *
    4406              ;*                                                             *
    4407              ;* FUNCTION PROPERTIES                                         *
    4408              ;*                            0 Parameter,  0 Auto,  4 SOE     *
    4409              ;***************************************************************
TMS320C2000 Assembler PC v15.12.1 Sat Jun 25 21:32:07 2016

Tools Copyright (c) 1996-2015 Texas Instruments Incorporated
C:\Users\RJKJ_ZGH\AppData\Local\Temp\0832410                         PAGE   84

    4410              
    4411 0000030c       _rsvd_ISR:
    4412                      .dwcfi  cfa_offset, -2
    4413                      .dwcfi  save_reg_to_mem, 26, 0
    4414 0000030c 761B          ASP       ; [CPU_] 
    4415 0000030d FFF0          PUSH      RB                    ; [CPU_] 
    4416                      .dwcfi  save_reg_to_mem, 73, 2
    4417                      .dwcfi  save_reg_to_mem, 74, 3
    4418                      .dwcfi  cfa_offset, -4
    4419 0000030e E200          MOV32     *SP++,STF             ; [CPU_] 
         0000030f 00BD 
    4420                      .dwcfi  save_reg_to_mem, 39, 4
    4421                      .dwcfi  save_reg_to_mem, 40, 5
    4422                      .dwcfi  cfa_offset, -6
    4423 00000310 E630          SETFLG    RNDF32=1, RNDF64=1    ; [CPU_] 
         00000311 0600 
    4424 00000312 2942          CLRC      PAGE0,OVM             ; [CPU_] 
    4425 00000313 5616          CLRC      AMODE                 ; [CPU_] 
    4426                      .dwpsn  file "D:/work/DSP/Steering_Engine/F2833x/v141/DSP2833x_common/source/DSP2833x_DefaultIsr.c",l
    4427 00000314 7625        ESTOP0
    4428 00000315       $C$L79:    
    4429                      .dwpsn  file "D:/work/DSP/Steering_Engine/F2833x/v141/DSP2833x_common/source/DSP2833x_DefaultIsr.c",l
    4430 00000315 6F00          B         $C$L79,UNC            ; [CPU_] |1181| 
    4431                      ; branch occurs ; [] |1181| 
    4432                      .dwattr $C$DW$79, DW_AT_TI_end_file("D:/work/DSP/Steering_Engine/F2833x/v141/DSP2833x_common/source/D
    4433                      .dwattr $C$DW$79, DW_AT_TI_end_line(0x49e)
    4434                      .dwattr $C$DW$79, DW_AT_TI_end_column(0x01)
    4435                      .dwendentry
    4436                      .dwendtag $C$DW$79
    4437              
    4438              
    4439              ;***************************************************************
    4440              ;* TYPE INFORMATION                                            *
    4441              ;***************************************************************
    4442              $C$DW$T$2       .dwtag  DW_TAG_unspecified_type
    4443                      .dwattr $C$DW$T$2, DW_AT_name("void")
    4444              
    4445              $C$DW$T$4       .dwtag  DW_TAG_base_type
    4446                      .dwattr $C$DW$T$4, DW_AT_encoding(DW_ATE_boolean)
    4447                      .dwattr $C$DW$T$4, DW_AT_name("bool")
    4448                      .dwattr $C$DW$T$4, DW_AT_byte_size(0x01)
    4449              
    4450              $C$DW$T$5       .dwtag  DW_TAG_base_type
    4451                      .dwattr $C$DW$T$5, DW_AT_encoding(DW_ATE_signed_char)
    4452                      .dwattr $C$DW$T$5, DW_AT_name("signed char")
    4453                      .dwattr $C$DW$T$5, DW_AT_byte_size(0x01)
    4454              
    4455              $C$DW$T$6       .dwtag  DW_TAG_base_type
    4456                      .dwattr $C$DW$T$6, DW_AT_encoding(DW_ATE_unsigned_char)
    4457                      .dwattr $C$DW$T$6, DW_AT_name("unsigned char")
    4458                      .dwattr $C$DW$T$6, DW_AT_byte_size(0x01)
    4459              
    4460              $C$DW$T$7       .dwtag  DW_TAG_base_type
    4461                      .dwattr $C$DW$T$7, DW_AT_encoding(DW_ATE_signed_char)
    4462                      .dwattr $C$DW$T$7, DW_AT_name("wchar_t")
TMS320C2000 Assembler PC v15.12.1 Sat Jun 25 21:32:07 2016

Tools Copyright (c) 1996-2015 Texas Instruments Incorporated
C:\Users\RJKJ_ZGH\AppData\Local\Temp\0832410                         PAGE   85

    4463                      .dwattr $C$DW$T$7, DW_AT_byte_size(0x01)
    4464              
    4465              $C$DW$T$8       .dwtag  DW_TAG_base_type
    4466                      .dwattr $C$DW$T$8, DW_AT_encoding(DW_ATE_signed)
    4467                      .dwattr $C$DW$T$8, DW_AT_name("short")
    4468                      .dwattr $C$DW$T$8, DW_AT_byte_size(0x01)
    4469              
    4470              $C$DW$T$9       .dwtag  DW_TAG_base_type
    4471                      .dwattr $C$DW$T$9, DW_AT_encoding(DW_ATE_unsigned)
    4472                      .dwattr $C$DW$T$9, DW_AT_name("unsigned short")
    4473                      .dwattr $C$DW$T$9, DW_AT_byte_size(0x01)
    4474              
    4475              $C$DW$T$10      .dwtag  DW_TAG_base_type
    4476                      .dwattr $C$DW$T$10, DW_AT_encoding(DW_ATE_signed)
    4477                      .dwattr $C$DW$T$10, DW_AT_name("int")
    4478                      .dwattr $C$DW$T$10, DW_AT_byte_size(0x01)
    4479              
    4480              $C$DW$T$11      .dwtag  DW_TAG_base_type
    4481                      .dwattr $C$DW$T$11, DW_AT_encoding(DW_ATE_unsigned)
    4482                      .dwattr $C$DW$T$11, DW_AT_name("unsigned int")
    4483                      .dwattr $C$DW$T$11, DW_AT_byte_size(0x01)
    4484              
    4485              $C$DW$T$12      .dwtag  DW_TAG_base_type
    4486                      .dwattr $C$DW$T$12, DW_AT_encoding(DW_ATE_signed)
    4487                      .dwattr $C$DW$T$12, DW_AT_name("long")
    4488                      .dwattr $C$DW$T$12, DW_AT_byte_size(0x02)
    4489              
    4490              $C$DW$T$13      .dwtag  DW_TAG_base_type
    4491                      .dwattr $C$DW$T$13, DW_AT_encoding(DW_ATE_unsigned)
    4492                      .dwattr $C$DW$T$13, DW_AT_name("unsigned long")
    4493                      .dwattr $C$DW$T$13, DW_AT_byte_size(0x02)
    4494              
    4495              $C$DW$T$14      .dwtag  DW_TAG_base_type
    4496                      .dwattr $C$DW$T$14, DW_AT_encoding(DW_ATE_signed)
    4497                      .dwattr $C$DW$T$14, DW_AT_name("long long")
    4498                      .dwattr $C$DW$T$14, DW_AT_byte_size(0x04)
    4499              
    4500              $C$DW$T$15      .dwtag  DW_TAG_base_type
    4501                      .dwattr $C$DW$T$15, DW_AT_encoding(DW_ATE_unsigned)
    4502                      .dwattr $C$DW$T$15, DW_AT_name("unsigned long long")
    4503                      .dwattr $C$DW$T$15, DW_AT_byte_size(0x04)
    4504              
    4505              $C$DW$T$16      .dwtag  DW_TAG_base_type
    4506                      .dwattr $C$DW$T$16, DW_AT_encoding(DW_ATE_float)
    4507                      .dwattr $C$DW$T$16, DW_AT_name("float")
    4508                      .dwattr $C$DW$T$16, DW_AT_byte_size(0x02)
    4509              
    4510              $C$DW$T$17      .dwtag  DW_TAG_base_type
    4511                      .dwattr $C$DW$T$17, DW_AT_encoding(DW_ATE_float)
    4512                      .dwattr $C$DW$T$17, DW_AT_name("double")
    4513                      .dwattr $C$DW$T$17, DW_AT_byte_size(0x02)
    4514              
    4515              $C$DW$T$18      .dwtag  DW_TAG_base_type
    4516                      .dwattr $C$DW$T$18, DW_AT_encoding(DW_ATE_float)
    4517                      .dwattr $C$DW$T$18, DW_AT_name("long double")
TMS320C2000 Assembler PC v15.12.1 Sat Jun 25 21:32:07 2016

Tools Copyright (c) 1996-2015 Texas Instruments Incorporated
C:\Users\RJKJ_ZGH\AppData\Local\Temp\0832410                         PAGE   86

    4518                      .dwattr $C$DW$T$18, DW_AT_byte_size(0x04)
    4519              
    4520                      .dwattr $C$DW$CU, DW_AT_language(DW_LANG_C)
    4521              
    4522              ;***************************************************************
    4523              ;* DWARF CIE ENTRIES                                           *
    4524              ;***************************************************************
    4525              
    4526              $C$DW$CIE       .dwcie 26
    4527                      .dwcfi  cfa_register, 20
    4528                      .dwcfi  cfa_offset, 0
    4529                      .dwcfi  undefined, 0
    4530                      .dwcfi  undefined, 1
    4531                      .dwcfi  undefined, 2
    4532                      .dwcfi  undefined, 3
    4533                      .dwcfi  undefined, 20
    4534                      .dwcfi  undefined, 21
    4535                      .dwcfi  undefined, 22
    4536                      .dwcfi  undefined, 23
    4537                      .dwcfi  undefined, 24
    4538                      .dwcfi  undefined, 25
    4539                      .dwcfi  undefined, 26
    4540                      .dwcfi  same_value, 28
    4541                      .dwcfi  undefined, 29
    4542                      .dwcfi  undefined, 30
    4543                      .dwcfi  undefined, 31
    4544                      .dwcfi  undefined, 32
    4545                      .dwcfi  undefined, 33
    4546                      .dwcfi  undefined, 34
    4547                      .dwcfi  undefined, 35
    4548                      .dwcfi  undefined, 36
    4549                      .dwcfi  undefined, 37
    4550                      .dwcfi  undefined, 38
    4551                      .dwcfi  undefined, 75
    4552                      .dwcfi  undefined, 76
    4553                      .dwcfi  undefined, 77
    4554                      .dwcfi  undefined, 4
    4555                      .dwcfi  undefined, 5
    4556                      .dwcfi  same_value, 6
    4557                      .dwcfi  same_value, 7
    4558                      .dwcfi  same_value, 8
    4559                      .dwcfi  same_value, 9
    4560                      .dwcfi  same_value, 10
    4561                      .dwcfi  same_value, 11
    4562                      .dwcfi  undefined, 12
    4563                      .dwcfi  undefined, 13
    4564                      .dwcfi  undefined, 14
    4565                      .dwcfi  undefined, 15
    4566                      .dwcfi  undefined, 16
    4567                      .dwcfi  undefined, 17
    4568                      .dwcfi  undefined, 18
    4569                      .dwcfi  undefined, 19
    4570                      .dwcfi  undefined, 43
    4571                      .dwcfi  undefined, 44
    4572                      .dwcfi  undefined, 47
TMS320C2000 Assembler PC v15.12.1 Sat Jun 25 21:32:07 2016

Tools Copyright (c) 1996-2015 Texas Instruments Incorporated
C:\Users\RJKJ_ZGH\AppData\Local\Temp\0832410                         PAGE   87

    4573                      .dwcfi  undefined, 48
    4574                      .dwcfi  undefined, 51
    4575                      .dwcfi  undefined, 52
    4576                      .dwcfi  undefined, 55
    4577                      .dwcfi  undefined, 56
    4578                      .dwcfi  same_value, 59
    4579                      .dwcfi  same_value, 60
    4580                      .dwcfi  same_value, 63
    4581                      .dwcfi  same_value, 64
    4582                      .dwcfi  same_value, 67
    4583                      .dwcfi  same_value, 68
    4584                      .dwcfi  same_value, 71
    4585                      .dwcfi  same_value, 72
    4586                      .dwcfi  undefined, 73
    4587                      .dwcfi  undefined, 74
    4588                      .dwcfi  undefined, 39
    4589                      .dwcfi  undefined, 40
    4590                      .dwcfi  undefined, 27
    4591                      .dwendentry
    4592              
    4593              ;***************************************************************
    4594              ;* DWARF REGISTER MAP                                          *
    4595              ;***************************************************************
    4596              
    4597              $C$DW$80        .dwtag  DW_TAG_TI_assign_register
    4598                      .dwattr $C$DW$80, DW_AT_name("AL")
    4599                      .dwattr $C$DW$80, DW_AT_location[DW_OP_reg0]
    4600              
    4601              $C$DW$81        .dwtag  DW_TAG_TI_assign_register
    4602                      .dwattr $C$DW$81, DW_AT_name("AH")
    4603                      .dwattr $C$DW$81, DW_AT_location[DW_OP_reg1]
    4604              
    4605              $C$DW$82        .dwtag  DW_TAG_TI_assign_register
    4606                      .dwattr $C$DW$82, DW_AT_name("PL")
    4607                      .dwattr $C$DW$82, DW_AT_location[DW_OP_reg2]
    4608              
    4609              $C$DW$83        .dwtag  DW_TAG_TI_assign_register
    4610                      .dwattr $C$DW$83, DW_AT_name("PH")
    4611                      .dwattr $C$DW$83, DW_AT_location[DW_OP_reg3]
    4612              
    4613              $C$DW$84        .dwtag  DW_TAG_TI_assign_register
    4614                      .dwattr $C$DW$84, DW_AT_name("SP")
    4615                      .dwattr $C$DW$84, DW_AT_location[DW_OP_reg20]
    4616              
    4617              $C$DW$85        .dwtag  DW_TAG_TI_assign_register
    4618                      .dwattr $C$DW$85, DW_AT_name("XT")
    4619                      .dwattr $C$DW$85, DW_AT_location[DW_OP_reg21]
    4620              
    4621              $C$DW$86        .dwtag  DW_TAG_TI_assign_register
    4622                      .dwattr $C$DW$86, DW_AT_name("T")
    4623                      .dwattr $C$DW$86, DW_AT_location[DW_OP_reg22]
    4624              
    4625              $C$DW$87        .dwtag  DW_TAG_TI_assign_register
    4626                      .dwattr $C$DW$87, DW_AT_name("ST0")
    4627                      .dwattr $C$DW$87, DW_AT_location[DW_OP_reg23]
TMS320C2000 Assembler PC v15.12.1 Sat Jun 25 21:32:07 2016

Tools Copyright (c) 1996-2015 Texas Instruments Incorporated
C:\Users\RJKJ_ZGH\AppData\Local\Temp\0832410                         PAGE   88

    4628              
    4629              $C$DW$88        .dwtag  DW_TAG_TI_assign_register
    4630                      .dwattr $C$DW$88, DW_AT_name("ST1")
    4631                      .dwattr $C$DW$88, DW_AT_location[DW_OP_reg24]
    4632              
    4633              $C$DW$89        .dwtag  DW_TAG_TI_assign_register
    4634                      .dwattr $C$DW$89, DW_AT_name("PC")
    4635                      .dwattr $C$DW$89, DW_AT_location[DW_OP_reg25]
    4636              
    4637              $C$DW$90        .dwtag  DW_TAG_TI_assign_register
    4638                      .dwattr $C$DW$90, DW_AT_name("RPC")
    4639                      .dwattr $C$DW$90, DW_AT_location[DW_OP_reg26]
    4640              
    4641              $C$DW$91        .dwtag  DW_TAG_TI_assign_register
    4642                      .dwattr $C$DW$91, DW_AT_name("FP")
    4643                      .dwattr $C$DW$91, DW_AT_location[DW_OP_reg28]
    4644              
    4645              $C$DW$92        .dwtag  DW_TAG_TI_assign_register
    4646                      .dwattr $C$DW$92, DW_AT_name("DP")
    4647                      .dwattr $C$DW$92, DW_AT_location[DW_OP_reg29]
    4648              
    4649              $C$DW$93        .dwtag  DW_TAG_TI_assign_register
    4650                      .dwattr $C$DW$93, DW_AT_name("SXM")
    4651                      .dwattr $C$DW$93, DW_AT_location[DW_OP_reg30]
    4652              
    4653              $C$DW$94        .dwtag  DW_TAG_TI_assign_register
    4654                      .dwattr $C$DW$94, DW_AT_name("PM")
    4655                      .dwattr $C$DW$94, DW_AT_location[DW_OP_reg31]
    4656              
    4657              $C$DW$95        .dwtag  DW_TAG_TI_assign_register
    4658                      .dwattr $C$DW$95, DW_AT_name("OVM")
    4659                      .dwattr $C$DW$95, DW_AT_location[DW_OP_regx 0x20]
    4660              
    4661              $C$DW$96        .dwtag  DW_TAG_TI_assign_register
    4662                      .dwattr $C$DW$96, DW_AT_name("PAGE0")
    4663                      .dwattr $C$DW$96, DW_AT_location[DW_OP_regx 0x21]
    4664              
    4665              $C$DW$97        .dwtag  DW_TAG_TI_assign_register
    4666                      .dwattr $C$DW$97, DW_AT_name("AMODE")
    4667                      .dwattr $C$DW$97, DW_AT_location[DW_OP_regx 0x22]
    4668              
    4669              $C$DW$98        .dwtag  DW_TAG_TI_assign_register
    4670                      .dwattr $C$DW$98, DW_AT_name("INTM")
    4671                      .dwattr $C$DW$98, DW_AT_location[DW_OP_regx 0x23]
    4672              
    4673              $C$DW$99        .dwtag  DW_TAG_TI_assign_register
    4674                      .dwattr $C$DW$99, DW_AT_name("IFR")
    4675                      .dwattr $C$DW$99, DW_AT_location[DW_OP_regx 0x24]
    4676              
    4677              $C$DW$100       .dwtag  DW_TAG_TI_assign_register
    4678                      .dwattr $C$DW$100, DW_AT_name("IER")
    4679                      .dwattr $C$DW$100, DW_AT_location[DW_OP_regx 0x25]
    4680              
    4681              $C$DW$101       .dwtag  DW_TAG_TI_assign_register
    4682                      .dwattr $C$DW$101, DW_AT_name("V")
TMS320C2000 Assembler PC v15.12.1 Sat Jun 25 21:32:07 2016

Tools Copyright (c) 1996-2015 Texas Instruments Incorporated
C:\Users\RJKJ_ZGH\AppData\Local\Temp\0832410                         PAGE   89

    4683                      .dwattr $C$DW$101, DW_AT_location[DW_OP_regx 0x26]
    4684              
    4685              $C$DW$102       .dwtag  DW_TAG_TI_assign_register
    4686                      .dwattr $C$DW$102, DW_AT_name("PSEUDOH")
    4687                      .dwattr $C$DW$102, DW_AT_location[DW_OP_regx 0x4c]
    4688              
    4689              $C$DW$103       .dwtag  DW_TAG_TI_assign_register
    4690                      .dwattr $C$DW$103, DW_AT_name("VOL")
    4691                      .dwattr $C$DW$103, DW_AT_location[DW_OP_regx 0x4d]
    4692              
    4693              $C$DW$104       .dwtag  DW_TAG_TI_assign_register
    4694                      .dwattr $C$DW$104, DW_AT_name("AR0")
    4695                      .dwattr $C$DW$104, DW_AT_location[DW_OP_reg4]
    4696              
    4697              $C$DW$105       .dwtag  DW_TAG_TI_assign_register
    4698                      .dwattr $C$DW$105, DW_AT_name("XAR0")
    4699                      .dwattr $C$DW$105, DW_AT_location[DW_OP_reg5]
    4700              
    4701              $C$DW$106       .dwtag  DW_TAG_TI_assign_register
    4702                      .dwattr $C$DW$106, DW_AT_name("AR1")
    4703                      .dwattr $C$DW$106, DW_AT_location[DW_OP_reg6]
    4704              
    4705              $C$DW$107       .dwtag  DW_TAG_TI_assign_register
    4706                      .dwattr $C$DW$107, DW_AT_name("XAR1")
    4707                      .dwattr $C$DW$107, DW_AT_location[DW_OP_reg7]
    4708              
    4709              $C$DW$108       .dwtag  DW_TAG_TI_assign_register
    4710                      .dwattr $C$DW$108, DW_AT_name("AR2")
    4711                      .dwattr $C$DW$108, DW_AT_location[DW_OP_reg8]
    4712              
    4713              $C$DW$109       .dwtag  DW_TAG_TI_assign_register
    4714                      .dwattr $C$DW$109, DW_AT_name("XAR2")
    4715                      .dwattr $C$DW$109, DW_AT_location[DW_OP_reg9]
    4716              
    4717              $C$DW$110       .dwtag  DW_TAG_TI_assign_register
    4718                      .dwattr $C$DW$110, DW_AT_name("AR3")
    4719                      .dwattr $C$DW$110, DW_AT_location[DW_OP_reg10]
    4720              
    4721              $C$DW$111       .dwtag  DW_TAG_TI_assign_register
    4722                      .dwattr $C$DW$111, DW_AT_name("XAR3")
    4723                      .dwattr $C$DW$111, DW_AT_location[DW_OP_reg11]
    4724              
    4725              $C$DW$112       .dwtag  DW_TAG_TI_assign_register
    4726                      .dwattr $C$DW$112, DW_AT_name("AR4")
    4727                      .dwattr $C$DW$112, DW_AT_location[DW_OP_reg12]
    4728              
    4729              $C$DW$113       .dwtag  DW_TAG_TI_assign_register
    4730                      .dwattr $C$DW$113, DW_AT_name("XAR4")
    4731                      .dwattr $C$DW$113, DW_AT_location[DW_OP_reg13]
    4732              
    4733              $C$DW$114       .dwtag  DW_TAG_TI_assign_register
    4734                      .dwattr $C$DW$114, DW_AT_name("AR5")
    4735                      .dwattr $C$DW$114, DW_AT_location[DW_OP_reg14]
    4736              
    4737              $C$DW$115       .dwtag  DW_TAG_TI_assign_register
TMS320C2000 Assembler PC v15.12.1 Sat Jun 25 21:32:07 2016

Tools Copyright (c) 1996-2015 Texas Instruments Incorporated
C:\Users\RJKJ_ZGH\AppData\Local\Temp\0832410                         PAGE   90

    4738                      .dwattr $C$DW$115, DW_AT_name("XAR5")
    4739                      .dwattr $C$DW$115, DW_AT_location[DW_OP_reg15]
    4740              
    4741              $C$DW$116       .dwtag  DW_TAG_TI_assign_register
    4742                      .dwattr $C$DW$116, DW_AT_name("AR6")
    4743                      .dwattr $C$DW$116, DW_AT_location[DW_OP_reg16]
    4744              
    4745              $C$DW$117       .dwtag  DW_TAG_TI_assign_register
    4746                      .dwattr $C$DW$117, DW_AT_name("XAR6")
    4747                      .dwattr $C$DW$117, DW_AT_location[DW_OP_reg17]
    4748              
    4749              $C$DW$118       .dwtag  DW_TAG_TI_assign_register
    4750                      .dwattr $C$DW$118, DW_AT_name("AR7")
    4751                      .dwattr $C$DW$118, DW_AT_location[DW_OP_reg18]
    4752              
    4753              $C$DW$119       .dwtag  DW_TAG_TI_assign_register
    4754                      .dwattr $C$DW$119, DW_AT_name("XAR7")
    4755                      .dwattr $C$DW$119, DW_AT_location[DW_OP_reg19]
    4756              
    4757              $C$DW$120       .dwtag  DW_TAG_TI_assign_register
    4758                      .dwattr $C$DW$120, DW_AT_name("R0HL")
    4759                      .dwattr $C$DW$120, DW_AT_location[DW_OP_regx 0x2b]
    4760              
    4761              $C$DW$121       .dwtag  DW_TAG_TI_assign_register
    4762                      .dwattr $C$DW$121, DW_AT_name("R0H")
    4763                      .dwattr $C$DW$121, DW_AT_location[DW_OP_regx 0x2c]
    4764              
    4765              $C$DW$122       .dwtag  DW_TAG_TI_assign_register
    4766                      .dwattr $C$DW$122, DW_AT_name("R1HL")
    4767                      .dwattr $C$DW$122, DW_AT_location[DW_OP_regx 0x2f]
    4768              
    4769              $C$DW$123       .dwtag  DW_TAG_TI_assign_register
    4770                      .dwattr $C$DW$123, DW_AT_name("R1H")
    4771                      .dwattr $C$DW$123, DW_AT_location[DW_OP_regx 0x30]
    4772              
    4773              $C$DW$124       .dwtag  DW_TAG_TI_assign_register
    4774                      .dwattr $C$DW$124, DW_AT_name("R2HL")
    4775                      .dwattr $C$DW$124, DW_AT_location[DW_OP_regx 0x33]
    4776              
    4777              $C$DW$125       .dwtag  DW_TAG_TI_assign_register
    4778                      .dwattr $C$DW$125, DW_AT_name("R2H")
    4779                      .dwattr $C$DW$125, DW_AT_location[DW_OP_regx 0x34]
    4780              
    4781              $C$DW$126       .dwtag  DW_TAG_TI_assign_register
    4782                      .dwattr $C$DW$126, DW_AT_name("R3HL")
    4783                      .dwattr $C$DW$126, DW_AT_location[DW_OP_regx 0x37]
    4784              
    4785              $C$DW$127       .dwtag  DW_TAG_TI_assign_register
    4786                      .dwattr $C$DW$127, DW_AT_name("R3H")
    4787                      .dwattr $C$DW$127, DW_AT_location[DW_OP_regx 0x38]
    4788              
    4789              $C$DW$128       .dwtag  DW_TAG_TI_assign_register
    4790                      .dwattr $C$DW$128, DW_AT_name("R4HL")
    4791                      .dwattr $C$DW$128, DW_AT_location[DW_OP_regx 0x3b]
    4792              
TMS320C2000 Assembler PC v15.12.1 Sat Jun 25 21:32:07 2016

Tools Copyright (c) 1996-2015 Texas Instruments Incorporated
C:\Users\RJKJ_ZGH\AppData\Local\Temp\0832410                         PAGE   91

    4793              $C$DW$129       .dwtag  DW_TAG_TI_assign_register
    4794                      .dwattr $C$DW$129, DW_AT_name("R4H")
    4795                      .dwattr $C$DW$129, DW_AT_location[DW_OP_regx 0x3c]
    4796              
    4797              $C$DW$130       .dwtag  DW_TAG_TI_assign_register
    4798                      .dwattr $C$DW$130, DW_AT_name("R5HL")
    4799                      .dwattr $C$DW$130, DW_AT_location[DW_OP_regx 0x3f]
    4800              
    4801              $C$DW$131       .dwtag  DW_TAG_TI_assign_register
    4802                      .dwattr $C$DW$131, DW_AT_name("R5H")
    4803                      .dwattr $C$DW$131, DW_AT_location[DW_OP_regx 0x40]
    4804              
    4805              $C$DW$132       .dwtag  DW_TAG_TI_assign_register
    4806                      .dwattr $C$DW$132, DW_AT_name("R6HL")
    4807                      .dwattr $C$DW$132, DW_AT_location[DW_OP_regx 0x43]
    4808              
    4809              $C$DW$133       .dwtag  DW_TAG_TI_assign_register
    4810                      .dwattr $C$DW$133, DW_AT_name("R6H")
    4811                      .dwattr $C$DW$133, DW_AT_location[DW_OP_regx 0x44]
    4812              
    4813              $C$DW$134       .dwtag  DW_TAG_TI_assign_register
    4814                      .dwattr $C$DW$134, DW_AT_name("R7HL")
    4815                      .dwattr $C$DW$134, DW_AT_location[DW_OP_regx 0x47]
    4816              
    4817              $C$DW$135       .dwtag  DW_TAG_TI_assign_register
    4818                      .dwattr $C$DW$135, DW_AT_name("R7H")
    4819                      .dwattr $C$DW$135, DW_AT_location[DW_OP_regx 0x48]
    4820              
    4821              $C$DW$136       .dwtag  DW_TAG_TI_assign_register
    4822                      .dwattr $C$DW$136, DW_AT_name("RBL")
    4823                      .dwattr $C$DW$136, DW_AT_location[DW_OP_regx 0x49]
    4824              
    4825              $C$DW$137       .dwtag  DW_TAG_TI_assign_register
    4826                      .dwattr $C$DW$137, DW_AT_name("RB")
    4827                      .dwattr $C$DW$137, DW_AT_location[DW_OP_regx 0x4a]
    4828              
    4829              $C$DW$138       .dwtag  DW_TAG_TI_assign_register
    4830                      .dwattr $C$DW$138, DW_AT_name("STFL")
    4831                      .dwattr $C$DW$138, DW_AT_location[DW_OP_regx 0x27]
    4832              
    4833              $C$DW$139       .dwtag  DW_TAG_TI_assign_register
    4834                      .dwattr $C$DW$139, DW_AT_name("STF")
    4835                      .dwattr $C$DW$139, DW_AT_location[DW_OP_regx 0x28]
    4836              
    4837              $C$DW$140       .dwtag  DW_TAG_TI_assign_register
    4838                      .dwattr $C$DW$140, DW_AT_name("FPUHAZ")
    4839                      .dwattr $C$DW$140, DW_AT_location[DW_OP_reg27]
    4840              
    4841                      .dwendtag $C$DW$CU
    4842              

No Assembly Errors, No Assembly Warnings
