TMS320C2000 Assembler PC v15.12.1 Sat Jun 25 21:32:08 2016

Tools Copyright (c) 1996-2015 Texas Instruments Incorporated
C:\Users\RJKJ_ZGH\AppData\Local\Temp\0869210                         PAGE    1

       1              ;***************************************************************
       2              ;* TMS320C2000 C/C++ Codegen                   PC v15.12.1.LTS *
       3              ;* Date/Time created: Sat Jun 25 21:32:08 2016                 *
       4              ;***************************************************************
       5                      .compiler_opts --abi=coffabi --float_support=fpu32 --hll_source=on --mem_model:code=flat --mem_model:
       6        0002  FP      .set    XAR2
       7              
       8              $C$DW$CU        .dwtag  DW_TAG_compile_unit
       9                      .dwattr $C$DW$CU, DW_AT_name("D:/work/DSP/Steering_Engine/F2833x/v141/DSP2833x_common/source/DSP2833x
      10                      .dwattr $C$DW$CU, DW_AT_producer("TI TMS320C2000 C/C++ Codegen PC v15.12.1.LTS Copyright (c) 1996-201
      11                      .dwattr $C$DW$CU, DW_AT_TI_version(0x01)
      12                      .dwattr $C$DW$CU, DW_AT_comp_dir("D:\work\DSP\Steering_Engine\F2833x\v141\DSP2833x_examples_ccsv5\fpu
      13              
      14              $C$DW$1 .dwtag  DW_TAG_subprogram
      15                      .dwattr $C$DW$1, DW_AT_name("ADC_cal")
      16                      .dwattr $C$DW$1, DW_AT_TI_symbol_name("_ADC_cal")
      17                      .dwattr $C$DW$1, DW_AT_declaration
      18                      .dwattr $C$DW$1, DW_AT_external
      19                      .dwendtag $C$DW$1
      20              
      21              
      22              $C$DW$2 .dwtag  DW_TAG_subprogram
      23                      .dwattr $C$DW$2, DW_AT_name("DSP28x_usDelay")
      24                      .dwattr $C$DW$2, DW_AT_TI_symbol_name("_DSP28x_usDelay")
      25                      .dwattr $C$DW$2, DW_AT_declaration
      26                      .dwattr $C$DW$2, DW_AT_external
      27              $C$DW$3 .dwtag  DW_TAG_formal_parameter
      28                      .dwattr $C$DW$3, DW_AT_type(*$C$DW$T$65)
      29              
      30                      .dwendtag $C$DW$2
      31              
      32              $C$DW$4 .dwtag  DW_TAG_variable
      33                      .dwattr $C$DW$4, DW_AT_name("CsmPwl")
      34                      .dwattr $C$DW$4, DW_AT_TI_symbol_name("_CsmPwl")
      35                      .dwattr $C$DW$4, DW_AT_type(*$C$DW$T$77)
      36                      .dwattr $C$DW$4, DW_AT_declaration
      37                      .dwattr $C$DW$4, DW_AT_external
      38              
      39              $C$DW$5 .dwtag  DW_TAG_variable
      40                      .dwattr $C$DW$5, DW_AT_name("FlashRegs")
      41                      .dwattr $C$DW$5, DW_AT_TI_symbol_name("_FlashRegs")
      42                      .dwattr $C$DW$5, DW_AT_type(*$C$DW$T$83)
      43                      .dwattr $C$DW$5, DW_AT_declaration
      44                      .dwattr $C$DW$5, DW_AT_external
      45              
      46              $C$DW$6 .dwtag  DW_TAG_variable
      47                      .dwattr $C$DW$6, DW_AT_name("CsmRegs")
      48                      .dwattr $C$DW$6, DW_AT_TI_symbol_name("_CsmRegs")
      49                      .dwattr $C$DW$6, DW_AT_type(*$C$DW$T$78)
      50                      .dwattr $C$DW$6, DW_AT_declaration
      51                      .dwattr $C$DW$6, DW_AT_external
      52              
      53              $C$DW$7 .dwtag  DW_TAG_variable
      54                      .dwattr $C$DW$7, DW_AT_name("XintfRegs")
      55                      .dwattr $C$DW$7, DW_AT_TI_symbol_name("_XintfRegs")
TMS320C2000 Assembler PC v15.12.1 Sat Jun 25 21:32:08 2016

Tools Copyright (c) 1996-2015 Texas Instruments Incorporated
C:\Users\RJKJ_ZGH\AppData\Local\Temp\0869210                         PAGE    2

      56                      .dwattr $C$DW$7, DW_AT_type(*$C$DW$T$105)
      57                      .dwattr $C$DW$7, DW_AT_declaration
      58                      .dwattr $C$DW$7, DW_AT_external
      59              
      60              $C$DW$8 .dwtag  DW_TAG_variable
      61                      .dwattr $C$DW$8, DW_AT_name("SysCtrlRegs")
      62                      .dwattr $C$DW$8, DW_AT_TI_symbol_name("_SysCtrlRegs")
      63                      .dwattr $C$DW$8, DW_AT_type(*$C$DW$T$102)
      64                      .dwattr $C$DW$8, DW_AT_declaration
      65                      .dwattr $C$DW$8, DW_AT_external
      66              
      67              ;       C:\ti\ccsv6\tools\compiler\ti-cgt-c2000_15.12.1.LTS\bin\ac2000.exe -@C:\\Users\\RJKJ_ZGH\\AppData\\Lo
      68 00000000               .sect   ".text"
      69                      .clink
      70                      .global _InitSysCtrl
      71              
      72              $C$DW$9 .dwtag  DW_TAG_subprogram
      73                      .dwattr $C$DW$9, DW_AT_name("InitSysCtrl")
      74                      .dwattr $C$DW$9, DW_AT_low_pc(_InitSysCtrl)
      75                      .dwattr $C$DW$9, DW_AT_high_pc(0x00)
      76                      .dwattr $C$DW$9, DW_AT_TI_symbol_name("_InitSysCtrl")
      77                      .dwattr $C$DW$9, DW_AT_external
      78                      .dwattr $C$DW$9, DW_AT_TI_begin_file("D:/work/DSP/Steering_Engine/F2833x/v141/DSP2833x_common/source/
      79                      .dwattr $C$DW$9, DW_AT_TI_begin_line(0x25)
      80                      .dwattr $C$DW$9, DW_AT_TI_begin_column(0x06)
      81                      .dwattr $C$DW$9, DW_AT_TI_max_frame_size(-2)
      82                      .dwpsn  file "D:/work/DSP/Steering_Engine/F2833x/v141/DSP2833x_common/source/DSP2833x_SysCtrl.c",line
      83              
      84                      .dwfde $C$DW$CIE, _InitSysCtrl
      85              
      86              ;***************************************************************
      87              ;* FNAME: _InitSysCtrl                  FR SIZE:   0           *
      88              ;*                                                             *
      89              ;* FUNCTION ENVIRONMENT                                        *
      90              ;*                                                             *
      91              ;* FUNCTION PROPERTIES                                         *
      92              ;*                            0 Parameter,  0 Auto,  0 SOE     *
      93              ;***************************************************************
      94              
      95 00000000       _InitSysCtrl:
      96                      .dwcfi  cfa_offset, -2
      97                      .dwcfi  save_reg_to_mem, 26, 0
      98                      .dwpsn  file "D:/work/DSP/Steering_Engine/F2833x/v141/DSP2833x_common/source/DSP2833x_SysCtrl.c",line
      99              $C$DW$10        .dwtag  DW_TAG_TI_branch
     100                      .dwattr $C$DW$10, DW_AT_low_pc(0x00)
     101                      .dwattr $C$DW$10, DW_AT_name("_DisableDog")
     102                      .dwattr $C$DW$10, DW_AT_TI_call
     103              
     104 00000000 7640'         LCR       #_DisableDog          ; [CPU_] |41| 
         00000001 0013 
     105                      ; call occurs [#_DisableDog] ; [] |41| 
     106                      .dwpsn  file "D:/work/DSP/Steering_Engine/F2833x/v141/DSP2833x_common/source/DSP2833x_SysCtrl.c",line
     107 00000002 9A0A          MOVB      AL,#10                ; [CPU_] |45| 
     108 00000003 9B02          MOVB      AH,#2                 ; [CPU_] |45| 
     109              $C$DW$11        .dwtag  DW_TAG_TI_branch
TMS320C2000 Assembler PC v15.12.1 Sat Jun 25 21:32:08 2016

Tools Copyright (c) 1996-2015 Texas Instruments Incorporated
C:\Users\RJKJ_ZGH\AppData\Local\Temp\0869210                         PAGE    3

     110                      .dwattr $C$DW$11, DW_AT_low_pc(0x00)
     111                      .dwattr $C$DW$11, DW_AT_name("_InitPll")
     112                      .dwattr $C$DW$11, DW_AT_TI_call
     113              
     114 00000004 7640'         LCR       #_InitPll             ; [CPU_] |45| 
         00000005 001B 
     115                      ; call occurs [#_InitPll] ; [] |45| 
     116                      .dwpsn  file "D:/work/DSP/Steering_Engine/F2833x/v141/DSP2833x_common/source/DSP2833x_SysCtrl.c",line
     117              $C$DW$12        .dwtag  DW_TAG_TI_branch
     118                      .dwattr $C$DW$12, DW_AT_low_pc(0x00)
     119                      .dwattr $C$DW$12, DW_AT_name("_InitPeripheralClocks")
     120                      .dwattr $C$DW$12, DW_AT_TI_call
     121              
     122 00000006 7640'         LCR       #_InitPeripheralClocks ; [CPU_] |48| 
         00000007 006C 
     123                      ; call occurs [#_InitPeripheralClocks] ; [] |48| 
     124                      .dwpsn  file "D:/work/DSP/Steering_Engine/F2833x/v141/DSP2833x_common/source/DSP2833x_SysCtrl.c",line
     125              $C$DW$13        .dwtag  DW_TAG_TI_branch
     126                      .dwattr $C$DW$13, DW_AT_low_pc(0x00)
     127                      .dwattr $C$DW$13, DW_AT_TI_return
     128              
     129 00000008 0006          LRETR     ; [CPU_] 
     130                      ; return occurs ; [] 
     131                      .dwattr $C$DW$9, DW_AT_TI_end_file("D:/work/DSP/Steering_Engine/F2833x/v141/DSP2833x_common/source/DS
     132                      .dwattr $C$DW$9, DW_AT_TI_end_line(0x31)
     133                      .dwattr $C$DW$9, DW_AT_TI_end_column(0x01)
     134                      .dwendentry
     135                      .dwendtag $C$DW$9
     136              
     137 00000000               .sect   "ramfuncs"
     138                      .clink
     139                      .global _InitFlash
     140              
     141              $C$DW$14        .dwtag  DW_TAG_subprogram
     142                      .dwattr $C$DW$14, DW_AT_name("InitFlash")
     143                      .dwattr $C$DW$14, DW_AT_low_pc(_InitFlash)
     144                      .dwattr $C$DW$14, DW_AT_high_pc(0x00)
     145                      .dwattr $C$DW$14, DW_AT_TI_symbol_name("_InitFlash")
     146                      .dwattr $C$DW$14, DW_AT_external
     147                      .dwattr $C$DW$14, DW_AT_TI_begin_file("D:/work/DSP/Steering_Engine/F2833x/v141/DSP2833x_common/source
     148                      .dwattr $C$DW$14, DW_AT_TI_begin_line(0x3d)
     149                      .dwattr $C$DW$14, DW_AT_TI_begin_column(0x06)
     150                      .dwattr $C$DW$14, DW_AT_TI_max_frame_size(-2)
     151                      .dwpsn  file "D:/work/DSP/Steering_Engine/F2833x/v141/DSP2833x_common/source/DSP2833x_SysCtrl.c",line
     152              
     153                      .dwfde $C$DW$CIE, _InitFlash
     154              
     155              ;***************************************************************
     156              ;* FNAME: _InitFlash                    FR SIZE:   0           *
     157              ;*                                                             *
     158              ;* FUNCTION ENVIRONMENT                                        *
     159              ;*                                                             *
     160              ;* FUNCTION PROPERTIES                                         *
     161              ;*                            0 Parameter,  0 Auto,  0 SOE     *
     162              ;***************************************************************
TMS320C2000 Assembler PC v15.12.1 Sat Jun 25 21:32:08 2016

Tools Copyright (c) 1996-2015 Texas Instruments Incorporated
C:\Users\RJKJ_ZGH\AppData\Local\Temp\0869210                         PAGE    4

     163              
     164 00000000       _InitFlash:
     165                      .dwcfi  cfa_offset, -2
     166                      .dwcfi  save_reg_to_mem, 26, 0
     167                      .dwpsn  file "D:/work/DSP/Steering_Engine/F2833x/v141/DSP2833x_common/source/DSP2833x_SysCtrl.c",line
     168 00000000 7622   EALLOW
     169                      .dwpsn  file "D:/work/DSP/Steering_Engine/F2833x/v141/DSP2833x_common/source/DSP2833x_SysCtrl.c",line
     170 00000001 761F!         MOVW      DP,#_FlashRegs        ; [CPU_U] 
         00000002 0000 
     171 00000003 1A00!         OR        @_FlashRegs,#0x0001   ; [CPU_] |66| 
         00000004 0001 
     172                      .dwpsn  file "D:/work/DSP/Steering_Engine/F2833x/v141/DSP2833x_common/source/DSP2833x_SysCtrl.c",line
     173 00000005 CC06!         AND       AL,@_FlashRegs+6,#0xf0ff ; [CPU_] |74| 
         00000006 F0FF 
     174 00000007 1AA9          OR        AL,#0x0500            ; [CPU_] |74| 
         00000008 0500 
     175 00000009 9606!         MOV       @_FlashRegs+6,AL      ; [CPU_] |74| 
     176                      .dwpsn  file "D:/work/DSP/Steering_Engine/F2833x/v141/DSP2833x_common/source/DSP2833x_SysCtrl.c",line
     177 0000000a CC06!         AND       AL,@_FlashRegs+6,#0xfff0 ; [CPU_] |77| 
         0000000b FFF0 
     178 0000000c 5005          ORB       AL,#0x05              ; [CPU_] |77| 
     179 0000000d 9606!         MOV       @_FlashRegs+6,AL      ; [CPU_] |77| 
     180                      .dwpsn  file "D:/work/DSP/Steering_Engine/F2833x/v141/DSP2833x_common/source/DSP2833x_SysCtrl.c",line
     181 0000000e CC07!         AND       AL,@_FlashRegs+7,#0xffe0 ; [CPU_] |80| 
         0000000f FFE0 
     182 00000010 5008          ORB       AL,#0x08              ; [CPU_] |80| 
     183 00000011 9607!         MOV       @_FlashRegs+7,AL      ; [CPU_] |80| 
     184                      .dwpsn  file "D:/work/DSP/Steering_Engine/F2833x/v141/DSP2833x_common/source/DSP2833x_SysCtrl.c",line
     185 00000012 1A04!         OR        @_FlashRegs+4,#0x01ff ; [CPU_] |95| 
         00000013 01FF 
     186                      .dwpsn  file "D:/work/DSP/Steering_Engine/F2833x/v141/DSP2833x_common/source/DSP2833x_SysCtrl.c",line
     187 00000014 1A05!         OR        @_FlashRegs+5,#0x01ff ; [CPU_] |96| 
         00000015 01FF 
     188                      .dwpsn  file "D:/work/DSP/Steering_Engine/F2833x/v141/DSP2833x_common/source/DSP2833x_SysCtrl.c",line
     189 00000016 761A   EDIS
     190                      .dwpsn  file "D:/work/DSP/Steering_Engine/F2833x/v141/DSP2833x_common/source/DSP2833x_SysCtrl.c",line
     191 00000017 F607   RPT #7 || NOP
         00000018 7700 
     192                      .dwpsn  file "D:/work/DSP/Steering_Engine/F2833x/v141/DSP2833x_common/source/DSP2833x_SysCtrl.c",line
     193 00000019 FF69          SPM       #0                    ; [CPU_] 
     194              $C$DW$15        .dwtag  DW_TAG_TI_branch
     195                      .dwattr $C$DW$15, DW_AT_low_pc(0x00)
     196                      .dwattr $C$DW$15, DW_AT_TI_return
     197              
     198 0000001a 0006          LRETR     ; [CPU_] 
     199                      ; return occurs ; [] 
     200                      .dwattr $C$DW$14, DW_AT_TI_end_file("D:/work/DSP/Steering_Engine/F2833x/v141/DSP2833x_common/source/D
     201                      .dwattr $C$DW$14, DW_AT_TI_end_line(0x67)
     202                      .dwattr $C$DW$14, DW_AT_TI_end_column(0x01)
     203                      .dwendentry
     204                      .dwendtag $C$DW$14
     205              
     206 00000009               .sect   ".text"
     207                      .clink
     208                      .global _ServiceDog
TMS320C2000 Assembler PC v15.12.1 Sat Jun 25 21:32:08 2016

Tools Copyright (c) 1996-2015 Texas Instruments Incorporated
C:\Users\RJKJ_ZGH\AppData\Local\Temp\0869210                         PAGE    5

     209              
     210              $C$DW$16        .dwtag  DW_TAG_subprogram
     211                      .dwattr $C$DW$16, DW_AT_name("ServiceDog")
     212                      .dwattr $C$DW$16, DW_AT_low_pc(_ServiceDog)
     213                      .dwattr $C$DW$16, DW_AT_high_pc(0x00)
     214                      .dwattr $C$DW$16, DW_AT_TI_symbol_name("_ServiceDog")
     215                      .dwattr $C$DW$16, DW_AT_external
     216                      .dwattr $C$DW$16, DW_AT_TI_begin_file("D:/work/DSP/Steering_Engine/F2833x/v141/DSP2833x_common/source
     217                      .dwattr $C$DW$16, DW_AT_TI_begin_line(0x70)
     218                      .dwattr $C$DW$16, DW_AT_TI_begin_column(0x06)
     219                      .dwattr $C$DW$16, DW_AT_TI_max_frame_size(-2)
     220                      .dwpsn  file "D:/work/DSP/Steering_Engine/F2833x/v141/DSP2833x_common/source/DSP2833x_SysCtrl.c",line
     221              
     222                      .dwfde $C$DW$CIE, _ServiceDog
     223              
     224              ;***************************************************************
     225              ;* FNAME: _ServiceDog                   FR SIZE:   0           *
     226              ;*                                                             *
     227              ;* FUNCTION ENVIRONMENT                                        *
     228              ;*                                                             *
     229              ;* FUNCTION PROPERTIES                                         *
     230              ;*                            0 Parameter,  0 Auto,  0 SOE     *
     231              ;***************************************************************
     232              
     233 00000009       _ServiceDog:
     234                      .dwcfi  cfa_offset, -2
     235                      .dwcfi  save_reg_to_mem, 26, 0
     236                      .dwpsn  file "D:/work/DSP/Steering_Engine/F2833x/v141/DSP2833x_common/source/DSP2833x_SysCtrl.c",line
     237 00000009 7622   EALLOW
     238                      .dwpsn  file "D:/work/DSP/Steering_Engine/F2833x/v141/DSP2833x_common/source/DSP2833x_SysCtrl.c",line
     239 0000000a 761F!         MOVW      DP,#_SysCtrlRegs+21   ; [CPU_U] 
         0000000b 0000 
     240 0000000c 56BF!         MOVB      @_SysCtrlRegs+21,#85,UNC ; [CPU_] |115| 
         0000000d 5515 
     241                      .dwpsn  file "D:/work/DSP/Steering_Engine/F2833x/v141/DSP2833x_common/source/DSP2833x_SysCtrl.c",line
     242 0000000e 56BF!         MOVB      @_SysCtrlRegs+21,#170,UNC ; [CPU_] |116| 
         0000000f AA15 
     243                      .dwpsn  file "D:/work/DSP/Steering_Engine/F2833x/v141/DSP2833x_common/source/DSP2833x_SysCtrl.c",line
     244 00000010 761A   EDIS
     245                      .dwpsn  file "D:/work/DSP/Steering_Engine/F2833x/v141/DSP2833x_common/source/DSP2833x_SysCtrl.c",line
     246 00000011 FF69          SPM       #0                    ; [CPU_] 
     247              $C$DW$17        .dwtag  DW_TAG_TI_branch
     248                      .dwattr $C$DW$17, DW_AT_low_pc(0x00)
     249                      .dwattr $C$DW$17, DW_AT_TI_return
     250              
     251 00000012 0006          LRETR     ; [CPU_] 
     252                      ; return occurs ; [] 
     253                      .dwattr $C$DW$16, DW_AT_TI_end_file("D:/work/DSP/Steering_Engine/F2833x/v141/DSP2833x_common/source/D
     254                      .dwattr $C$DW$16, DW_AT_TI_end_line(0x76)
     255                      .dwattr $C$DW$16, DW_AT_TI_end_column(0x01)
     256                      .dwendentry
     257                      .dwendtag $C$DW$16
     258              
     259 00000013               .sect   ".text"
     260                      .clink
TMS320C2000 Assembler PC v15.12.1 Sat Jun 25 21:32:08 2016

Tools Copyright (c) 1996-2015 Texas Instruments Incorporated
C:\Users\RJKJ_ZGH\AppData\Local\Temp\0869210                         PAGE    6

     261                      .global _DisableDog
     262              
     263              $C$DW$18        .dwtag  DW_TAG_subprogram
     264                      .dwattr $C$DW$18, DW_AT_name("DisableDog")
     265                      .dwattr $C$DW$18, DW_AT_low_pc(_DisableDog)
     266                      .dwattr $C$DW$18, DW_AT_high_pc(0x00)
     267                      .dwattr $C$DW$18, DW_AT_TI_symbol_name("_DisableDog")
     268                      .dwattr $C$DW$18, DW_AT_external
     269                      .dwattr $C$DW$18, DW_AT_TI_begin_file("D:/work/DSP/Steering_Engine/F2833x/v141/DSP2833x_common/source
     270                      .dwattr $C$DW$18, DW_AT_TI_begin_line(0x7d)
     271                      .dwattr $C$DW$18, DW_AT_TI_begin_column(0x06)
     272                      .dwattr $C$DW$18, DW_AT_TI_max_frame_size(-2)
     273                      .dwpsn  file "D:/work/DSP/Steering_Engine/F2833x/v141/DSP2833x_common/source/DSP2833x_SysCtrl.c",line
     274              
     275                      .dwfde $C$DW$CIE, _DisableDog
     276              
     277              ;***************************************************************
     278              ;* FNAME: _DisableDog                   FR SIZE:   0           *
     279              ;*                                                             *
     280              ;* FUNCTION ENVIRONMENT                                        *
     281              ;*                                                             *
     282              ;* FUNCTION PROPERTIES                                         *
     283              ;*                            0 Parameter,  0 Auto,  0 SOE     *
     284              ;***************************************************************
     285              
     286 00000013       _DisableDog:
     287                      .dwcfi  cfa_offset, -2
     288                      .dwcfi  save_reg_to_mem, 26, 0
     289                      .dwpsn  file "D:/work/DSP/Steering_Engine/F2833x/v141/DSP2833x_common/source/DSP2833x_SysCtrl.c",line
     290 00000013 7622   EALLOW
     291                      .dwpsn  file "D:/work/DSP/Steering_Engine/F2833x/v141/DSP2833x_common/source/DSP2833x_SysCtrl.c",line
     292 00000014 761F!         MOVW      DP,#_SysCtrlRegs+25   ; [CPU_U] 
         00000015 0000 
     293 00000016 56BF!         MOVB      @_SysCtrlRegs+25,#104,UNC ; [CPU_] |128| 
         00000017 6819 
     294                      .dwpsn  file "D:/work/DSP/Steering_Engine/F2833x/v141/DSP2833x_common/source/DSP2833x_SysCtrl.c",line
     295 00000018 761A   EDIS
     296                      .dwpsn  file "D:/work/DSP/Steering_Engine/F2833x/v141/DSP2833x_common/source/DSP2833x_SysCtrl.c",line
     297 00000019 FF69          SPM       #0                    ; [CPU_] 
     298              $C$DW$19        .dwtag  DW_TAG_TI_branch
     299                      .dwattr $C$DW$19, DW_AT_low_pc(0x00)
     300                      .dwattr $C$DW$19, DW_AT_TI_return
     301              
     302 0000001a 0006          LRETR     ; [CPU_] 
     303                      ; return occurs ; [] 
     304                      .dwattr $C$DW$18, DW_AT_TI_end_file("D:/work/DSP/Steering_Engine/F2833x/v141/DSP2833x_common/source/D
     305                      .dwattr $C$DW$18, DW_AT_TI_end_line(0x82)
     306                      .dwattr $C$DW$18, DW_AT_TI_end_column(0x01)
     307                      .dwendentry
     308                      .dwendtag $C$DW$18
     309              
     310 0000001b               .sect   ".text"
     311                      .clink
     312                      .global _InitPll
     313              
TMS320C2000 Assembler PC v15.12.1 Sat Jun 25 21:32:08 2016

Tools Copyright (c) 1996-2015 Texas Instruments Incorporated
C:\Users\RJKJ_ZGH\AppData\Local\Temp\0869210                         PAGE    7

     314              $C$DW$20        .dwtag  DW_TAG_subprogram
     315                      .dwattr $C$DW$20, DW_AT_name("InitPll")
     316                      .dwattr $C$DW$20, DW_AT_low_pc(_InitPll)
     317                      .dwattr $C$DW$20, DW_AT_high_pc(0x00)
     318                      .dwattr $C$DW$20, DW_AT_TI_symbol_name("_InitPll")
     319                      .dwattr $C$DW$20, DW_AT_external
     320                      .dwattr $C$DW$20, DW_AT_TI_begin_file("D:/work/DSP/Steering_Engine/F2833x/v141/DSP2833x_common/source
     321                      .dwattr $C$DW$20, DW_AT_TI_begin_line(0x89)
     322                      .dwattr $C$DW$20, DW_AT_TI_begin_column(0x06)
     323                      .dwattr $C$DW$20, DW_AT_TI_max_frame_size(-4)
     324                      .dwpsn  file "D:/work/DSP/Steering_Engine/F2833x/v141/DSP2833x_common/source/DSP2833x_SysCtrl.c",line
     325              
     326                      .dwfde $C$DW$CIE, _InitPll
     327              $C$DW$21        .dwtag  DW_TAG_formal_parameter
     328                      .dwattr $C$DW$21, DW_AT_name("val")
     329                      .dwattr $C$DW$21, DW_AT_TI_symbol_name("_val")
     330                      .dwattr $C$DW$21, DW_AT_type(*$C$DW$T$19)
     331                      .dwattr $C$DW$21, DW_AT_location[DW_OP_reg0]
     332              
     333              $C$DW$22        .dwtag  DW_TAG_formal_parameter
     334                      .dwattr $C$DW$22, DW_AT_name("divsel")
     335                      .dwattr $C$DW$22, DW_AT_TI_symbol_name("_divsel")
     336                      .dwattr $C$DW$22, DW_AT_type(*$C$DW$T$19)
     337                      .dwattr $C$DW$22, DW_AT_location[DW_OP_reg1]
     338              
     339              
     340              ;***************************************************************
     341              ;* FNAME: _InitPll                      FR SIZE:   2           *
     342              ;*                                                             *
     343              ;* FUNCTION ENVIRONMENT                                        *
     344              ;*                                                             *
     345              ;* FUNCTION PROPERTIES                                         *
     346              ;*                            0 Parameter,  2 Auto,  0 SOE     *
     347              ;***************************************************************
     348              
     349 0000001b       _InitPll:
     350                      .dwcfi  cfa_offset, -2
     351                      .dwcfi  save_reg_to_mem, 26, 0
     352 0000001b FE02          ADDB      SP,#2                 ; [CPU_U] 
     353                      .dwcfi  cfa_offset, -4
     354              $C$DW$23        .dwtag  DW_TAG_variable
     355                      .dwattr $C$DW$23, DW_AT_name("val")
     356                      .dwattr $C$DW$23, DW_AT_TI_symbol_name("_val")
     357                      .dwattr $C$DW$23, DW_AT_type(*$C$DW$T$19)
     358                      .dwattr $C$DW$23, DW_AT_location[DW_OP_breg20 -1]
     359              
     360              $C$DW$24        .dwtag  DW_TAG_variable
     361                      .dwattr $C$DW$24, DW_AT_name("divsel")
     362                      .dwattr $C$DW$24, DW_AT_TI_symbol_name("_divsel")
     363                      .dwattr $C$DW$24, DW_AT_type(*$C$DW$T$19)
     364                      .dwattr $C$DW$24, DW_AT_location[DW_OP_breg20 -2]
     365              
     366 0000001c 9742          MOV       *-SP[2],AH            ; [CPU_] |138| 
     367 0000001d 9641          MOV       *-SP[1],AL            ; [CPU_] |138| 
     368                      .dwpsn  file "D:/work/DSP/Steering_Engine/F2833x/v141/DSP2833x_common/source/DSP2833x_SysCtrl.c",line
TMS320C2000 Assembler PC v15.12.1 Sat Jun 25 21:32:08 2016

Tools Copyright (c) 1996-2015 Texas Instruments Incorporated
C:\Users\RJKJ_ZGH\AppData\Local\Temp\0869210                         PAGE    8

     369 0000001e 761F!         MOVW      DP,#_SysCtrlRegs+1    ; [CPU_U] 
         0000001f 0000 
     370 00000020 4301!         TBIT      @_SysCtrlRegs+1,#3    ; [CPU_] |141| 
     371 00000021 6C02          B         $C$L1,NTC             ; [CPU_] |141| 
     372                      ; branchcc occurs ; [] |141| 
     373                      .dwpsn  file "D:/work/DSP/Steering_Engine/F2833x/v141/DSP2833x_common/source/DSP2833x_SysCtrl.c",line
     374 00000022 7625          ESTOP0
     375 00000023       $C$L1:    
     376                      .dwpsn  file "D:/work/DSP/Steering_Engine/F2833x/v141/DSP2833x_common/source/DSP2833x_SysCtrl.c",line
     377 00000023 CC01!         AND       AL,@_SysCtrlRegs+1,#0x0180 ; [CPU_] |152| 
         00000024 0180 
     378 00000025 FFC6          LSR       AL,7                  ; [CPU_] |152| 
     379 00000026 6105          B         $C$L2,EQ              ; [CPU_] |152| 
     380                      ; branchcc occurs ; [] |152| 
     381                      .dwpsn  file "D:/work/DSP/Steering_Engine/F2833x/v141/DSP2833x_common/source/DSP2833x_SysCtrl.c",line
     382 00000027 7622   EALLOW
     383                      .dwpsn  file "D:/work/DSP/Steering_Engine/F2833x/v141/DSP2833x_common/source/DSP2833x_SysCtrl.c",line
     384 00000028 1801!         AND       @_SysCtrlRegs+1,#0xfe7f ; [CPU_] |155| 
         00000029 FE7F 
     385                      .dwpsn  file "D:/work/DSP/Steering_Engine/F2833x/v141/DSP2833x_common/source/DSP2833x_SysCtrl.c",line
     386 0000002a 761A   EDIS
     387 0000002b       $C$L2:    
     388                      .dwpsn  file "D:/work/DSP/Steering_Engine/F2833x/v141/DSP2833x_common/source/DSP2833x_SysCtrl.c",line
     389 0000002b 0E41          MOVU      ACC,*-SP[1]           ; [CPU_] |160| 
     390 0000002c 1EA6          MOVL      XAR6,ACC              ; [CPU_] |160| 
     391 0000002d 9211!         MOV       AL,@_SysCtrlRegs+17   ; [CPU_] |160| 
     392 0000002e 900F          ANDB      AL,#0x0f              ; [CPU_] |160| 
     393 0000002f 80A9          MOVZ      AR7,AL                ; [CPU_] |160| 
     394 00000030 06A6          MOVL      ACC,XAR6              ; [CPU_] |160| 
     395 00000031 0FA7          CMPL      ACC,XAR7              ; [CPU_] |160| 
     396 00000032 6116          B         $C$L4,EQ              ; [CPU_] |160| 
     397                      ; branchcc occurs ; [] |160| 
     398                      .dwpsn  file "D:/work/DSP/Steering_Engine/F2833x/v141/DSP2833x_common/source/DSP2833x_SysCtrl.c",line
     399 00000033 7622   EALLOW
     400                      .dwpsn  file "D:/work/DSP/Steering_Engine/F2833x/v141/DSP2833x_common/source/DSP2833x_SysCtrl.c",line
     401 00000034 1A01!         OR        @_SysCtrlRegs+1,#0x0040 ; [CPU_] |165| 
         00000035 0040 
     402                      .dwpsn  file "D:/work/DSP/Steering_Engine/F2833x/v141/DSP2833x_common/source/DSP2833x_SysCtrl.c",line
     403 00000036 9241          MOV       AL,*-SP[1]            ; [CPU_] |166| 
     404 00000037 CD11!         AND       AH,@_SysCtrlRegs+17,#0xfff0 ; [CPU_] |166| 
         00000038 FFF0 
     405 00000039 900F          ANDB      AL,#0x0f              ; [CPU_] |166| 
     406 0000003a CAA8          OR        AL,AH                 ; [CPU_] |166| 
     407 0000003b 9611!         MOV       @_SysCtrlRegs+17,AL   ; [CPU_] |166| 
     408                      .dwpsn  file "D:/work/DSP/Steering_Engine/F2833x/v141/DSP2833x_common/source/DSP2833x_SysCtrl.c",line
     409 0000003c 761A   EDIS
     410                      .dwpsn  file "D:/work/DSP/Steering_Engine/F2833x/v141/DSP2833x_common/source/DSP2833x_SysCtrl.c",line
     411 0000003d FF69          SPM       #0                    ; [CPU_] 
     412              $C$DW$25        .dwtag  DW_TAG_TI_branch
     413                      .dwattr $C$DW$25, DW_AT_low_pc(0x00)
     414                      .dwattr $C$DW$25, DW_AT_name("_DisableDog")
     415                      .dwattr $C$DW$25, DW_AT_TI_call
     416              
     417 0000003e 7640'         LCR       #_DisableDog          ; [CPU_] |187| 
         0000003f 0013 
TMS320C2000 Assembler PC v15.12.1 Sat Jun 25 21:32:08 2016

Tools Copyright (c) 1996-2015 Texas Instruments Incorporated
C:\Users\RJKJ_ZGH\AppData\Local\Temp\0869210                         PAGE    9

     418                      ; call occurs [#_DisableDog] ; [] |187| 
     419                      .dwpsn  file "D:/work/DSP/Steering_Engine/F2833x/v141/DSP2833x_common/source/DSP2833x_SysCtrl.c",line
     420 00000040       $C$L3:    
     421                      .dwpsn  file "D:/work/DSP/Steering_Engine/F2833x/v141/DSP2833x_common/source/DSP2833x_SysCtrl.c",line
     422 00000040 9201!         MOV       AL,@_SysCtrlRegs+1    ; [CPU_] |189| 
     423 00000041 9001          ANDB      AL,#0x01              ; [CPU_] |189| 
     424 00000042 5201          CMPB      AL,#1                 ; [CPU_] |189| 
     425 00000043 60FD          B         $C$L3,NEQ             ; [CPU_] |189| 
     426                      ; branchcc occurs ; [] |189| 
     427                      .dwpsn  file "D:/work/DSP/Steering_Engine/F2833x/v141/DSP2833x_common/source/DSP2833x_SysCtrl.c",line
     428 00000044 7622   EALLOW
     429                      .dwpsn  file "D:/work/DSP/Steering_Engine/F2833x/v141/DSP2833x_common/source/DSP2833x_SysCtrl.c",line
     430 00000045 1801!         AND       @_SysCtrlRegs+1,#0xffbf ; [CPU_] |196| 
         00000046 FFBF 
     431                      .dwpsn  file "D:/work/DSP/Steering_Engine/F2833x/v141/DSP2833x_common/source/DSP2833x_SysCtrl.c",line
     432 00000047 761A   EDIS
     433 00000048       $C$L4:    
     434                      .dwpsn  file "D:/work/DSP/Steering_Engine/F2833x/v141/DSP2833x_common/source/DSP2833x_SysCtrl.c",line
     435 00000048 9242          MOV       AL,*-SP[2]            ; [CPU_] |201| 
     436 00000049 5201          CMPB      AL,#1                 ; [CPU_] |201| 
     437 0000004a 6103          B         $C$L5,EQ              ; [CPU_] |201| 
     438                      ; branchcc occurs ; [] |201| 
     439 0000004b 5202          CMPB      AL,#2                 ; [CPU_] |201| 
     440 0000004c 6009          B         $C$L6,NEQ             ; [CPU_] |201| 
     441                      ; branchcc occurs ; [] |201| 
     442 0000004d       $C$L5:    
     443                      .dwpsn  file "D:/work/DSP/Steering_Engine/F2833x/v141/DSP2833x_common/source/DSP2833x_SysCtrl.c",line
     444 0000004d 7622   EALLOW
     445                      .dwpsn  file "D:/work/DSP/Steering_Engine/F2833x/v141/DSP2833x_common/source/DSP2833x_SysCtrl.c",line
     446 0000004e 9003          ANDB      AL,#0x03              ; [CPU_] |204| 
     447 0000004f CD01!         AND       AH,@_SysCtrlRegs+1,#0xfe7f ; [CPU_] |204| 
         00000050 FE7F 
     448 00000051 FF86          LSL       AL,7                  ; [CPU_] |204| 
     449 00000052 CAA8          OR        AL,AH                 ; [CPU_] |204| 
     450 00000053 9601!         MOV       @_SysCtrlRegs+1,AL    ; [CPU_] |204| 
     451                      .dwpsn  file "D:/work/DSP/Steering_Engine/F2833x/v141/DSP2833x_common/source/DSP2833x_SysCtrl.c",line
     452 00000054 761A   EDIS
     453 00000055       $C$L6:    
     454                      .dwpsn  file "D:/work/DSP/Steering_Engine/F2833x/v141/DSP2833x_common/source/DSP2833x_SysCtrl.c",line
     455 00000055 9242          MOV       AL,*-SP[2]            ; [CPU_] |214| 
     456 00000056 5203          CMPB      AL,#3                 ; [CPU_] |214| 
     457 00000057 6012          B         $C$L7,NEQ             ; [CPU_] |214| 
     458                      ; branchcc occurs ; [] |214| 
     459                      .dwpsn  file "D:/work/DSP/Steering_Engine/F2833x/v141/DSP2833x_common/source/DSP2833x_SysCtrl.c",line
     460 00000058 7622   EALLOW
     461                      .dwpsn  file "D:/work/DSP/Steering_Engine/F2833x/v141/DSP2833x_common/source/DSP2833x_SysCtrl.c",line
     462 00000059 CC01!         AND       AL,@_SysCtrlRegs+1,#0xfe7f ; [CPU_] |217| 
         0000005a FE7F 
     463 0000005b 1AA9          OR        AL,#0x0100            ; [CPU_] |217| 
         0000005c 0100 
     464 0000005d 9601!         MOV       @_SysCtrlRegs+1,AL    ; [CPU_] |217| 
     465                      .dwpsn  file "D:/work/DSP/Steering_Engine/F2833x/v141/DSP2833x_common/source/DSP2833x_SysCtrl.c",line
     466 0000005e 8F00          MOVL      XAR4,#1498            ; [CPU_U] |218| 
         0000005f 05DA 
     467 00000060 FF69          SPM       #0                    ; [CPU_] 
TMS320C2000 Assembler PC v15.12.1 Sat Jun 25 21:32:08 2016

Tools Copyright (c) 1996-2015 Texas Instruments Incorporated
C:\Users\RJKJ_ZGH\AppData\Local\Temp\0869210                         PAGE   10

     468 00000061 A8A9          MOVL      ACC,XAR4              ; [CPU_] |218| 
     469              $C$DW$26        .dwtag  DW_TAG_TI_branch
     470                      .dwattr $C$DW$26, DW_AT_low_pc(0x00)
     471                      .dwattr $C$DW$26, DW_AT_name("_DSP28x_usDelay")
     472                      .dwattr $C$DW$26, DW_AT_TI_call
     473              
     474 00000062 7640!         LCR       #_DSP28x_usDelay      ; [CPU_] |218| 
         00000063 0000 
     475                      ; call occurs [#_DSP28x_usDelay] ; [] |218| 
     476                      .dwpsn  file "D:/work/DSP/Steering_Engine/F2833x/v141/DSP2833x_common/source/DSP2833x_SysCtrl.c",line
     477 00000064 761F!         MOVW      DP,#_SysCtrlRegs+1    ; [CPU_U] 
         00000065 0000 
     478 00000066 1A01!         OR        @_SysCtrlRegs+1,#0x0180 ; [CPU_] |219| 
         00000067 0180 
     479                      .dwpsn  file "D:/work/DSP/Steering_Engine/F2833x/v141/DSP2833x_common/source/DSP2833x_SysCtrl.c",line
     480 00000068 761A   EDIS
     481                      .dwpsn  file "D:/work/DSP/Steering_Engine/F2833x/v141/DSP2833x_common/source/DSP2833x_SysCtrl.c",line
     482 00000069       $C$L7:    
     483 00000069 FE82          SUBB      SP,#2                 ; [CPU_U] 
     484                      .dwcfi  cfa_offset, -2
     485 0000006a FF69          SPM       #0                    ; [CPU_] 
     486              $C$DW$27        .dwtag  DW_TAG_TI_branch
     487                      .dwattr $C$DW$27, DW_AT_low_pc(0x00)
     488                      .dwattr $C$DW$27, DW_AT_TI_return
     489              
     490 0000006b 0006          LRETR     ; [CPU_] 
     491                      ; return occurs ; [] 
     492                      .dwattr $C$DW$20, DW_AT_TI_end_file("D:/work/DSP/Steering_Engine/F2833x/v141/DSP2833x_common/source/D
     493                      .dwattr $C$DW$20, DW_AT_TI_end_line(0xde)
     494                      .dwattr $C$DW$20, DW_AT_TI_end_column(0x01)
     495                      .dwendentry
     496                      .dwendtag $C$DW$20
     497              
     498 0000006c               .sect   ".text"
     499                      .clink
     500                      .global _InitPeripheralClocks
     501              
     502              $C$DW$28        .dwtag  DW_TAG_subprogram
     503                      .dwattr $C$DW$28, DW_AT_name("InitPeripheralClocks")
     504                      .dwattr $C$DW$28, DW_AT_low_pc(_InitPeripheralClocks)
     505                      .dwattr $C$DW$28, DW_AT_high_pc(0x00)
     506                      .dwattr $C$DW$28, DW_AT_TI_symbol_name("_InitPeripheralClocks")
     507                      .dwattr $C$DW$28, DW_AT_external
     508                      .dwattr $C$DW$28, DW_AT_TI_begin_file("D:/work/DSP/Steering_Engine/F2833x/v141/DSP2833x_common/source
     509                      .dwattr $C$DW$28, DW_AT_TI_begin_line(0xeb)
     510                      .dwattr $C$DW$28, DW_AT_TI_begin_column(0x06)
     511                      .dwattr $C$DW$28, DW_AT_TI_max_frame_size(-2)
     512                      .dwpsn  file "D:/work/DSP/Steering_Engine/F2833x/v141/DSP2833x_common/source/DSP2833x_SysCtrl.c",line
     513              
     514                      .dwfde $C$DW$CIE, _InitPeripheralClocks
     515              
     516              ;***************************************************************
     517              ;* FNAME: _InitPeripheralClocks         FR SIZE:   0           *
     518              ;*                                                             *
     519              ;* FUNCTION ENVIRONMENT                                        *
TMS320C2000 Assembler PC v15.12.1 Sat Jun 25 21:32:08 2016

Tools Copyright (c) 1996-2015 Texas Instruments Incorporated
C:\Users\RJKJ_ZGH\AppData\Local\Temp\0869210                         PAGE   11

     520              ;*                                                             *
     521              ;* FUNCTION PROPERTIES                                         *
     522              ;*                            0 Parameter,  0 Auto,  0 SOE     *
     523              ;***************************************************************
     524              
     525 0000006c       _InitPeripheralClocks:
     526                      .dwcfi  cfa_offset, -2
     527                      .dwcfi  save_reg_to_mem, 26, 0
     528                      .dwpsn  file "D:/work/DSP/Steering_Engine/F2833x/v141/DSP2833x_common/source/DSP2833x_SysCtrl.c",line
     529 0000006c 7622   EALLOW
     530                      .dwpsn  file "D:/work/DSP/Steering_Engine/F2833x/v141/DSP2833x_common/source/DSP2833x_SysCtrl.c",line
     531 0000006d 761F!         MOVW      DP,#_SysCtrlRegs+10   ; [CPU_U] 
         0000006e 0000 
     532 0000006f 56BF!         MOVB      @_SysCtrlRegs+10,#1,UNC ; [CPU_] |240| 
         00000070 010A 
     533                      .dwpsn  file "D:/work/DSP/Steering_Engine/F2833x/v141/DSP2833x_common/source/DSP2833x_SysCtrl.c",line
     534 00000071 56BF!         MOVB      @_SysCtrlRegs+11,#2,UNC ; [CPU_] |241| 
         00000072 020B 
     535                      .dwpsn  file "D:/work/DSP/Steering_Engine/F2833x/v141/DSP2833x_common/source/DSP2833x_SysCtrl.c",line
     536 00000073 761F!         MOVW      DP,#_XintfRegs+21     ; [CPU_U] 
         00000074 0000 
     537 00000075 CC15!         AND       AL,@_XintfRegs+21,#0xfff8 ; [CPU_] |245| 
         00000076 FFF8 
     538 00000077 5001          ORB       AL,#0x01              ; [CPU_] |245| 
     539 00000078 9615!         MOV       @_XintfRegs+21,AL     ; [CPU_] |245| 
     540                      .dwpsn  file "D:/work/DSP/Steering_Engine/F2833x/v141/DSP2833x_common/source/DSP2833x_SysCtrl.c",line
     541 00000079 1A14!         OR        @_XintfRegs+20,#0x0004 ; [CPU_] |247| 
         0000007a 0004 
     542                      .dwpsn  file "D:/work/DSP/Steering_Engine/F2833x/v141/DSP2833x_common/source/DSP2833x_SysCtrl.c",line
     543 0000007b 1814!         AND       @_XintfRegs+20,#0xfff7 ; [CPU_] |249| 
         0000007c FFF7 
     544                      .dwpsn  file "D:/work/DSP/Steering_Engine/F2833x/v141/DSP2833x_common/source/DSP2833x_SysCtrl.c",line
     545 0000007d 761F!         MOVW      DP,#_SysCtrlRegs+12   ; [CPU_U] 
         0000007e 0000 
     546 0000007f 1A0C!         OR        @_SysCtrlRegs+12,#0x0008 ; [CPU_] |260| 
         00000080 0008 
     547                      .dwpsn  file "D:/work/DSP/Steering_Engine/F2833x/v141/DSP2833x_common/source/DSP2833x_SysCtrl.c",line
     548 00000081 FF69          SPM       #0                    ; [CPU_] 
     549              $C$DW$29        .dwtag  DW_TAG_TI_branch
     550                      .dwattr $C$DW$29, DW_AT_low_pc(0x00)
     551                      .dwattr $C$DW$29, DW_AT_name("_ADC_cal")
     552                      .dwattr $C$DW$29, DW_AT_TI_call
     553              
     554 00000082 7640!         LCR       #_ADC_cal             ; [CPU_] |272| 
         00000083 0000 
     555                      ; call occurs [#_ADC_cal] ; [] |272| 
     556                      .dwpsn  file "D:/work/DSP/Steering_Engine/F2833x/v141/DSP2833x_common/source/DSP2833x_SysCtrl.c",line
     557 00000084 761F!         MOVW      DP,#_SysCtrlRegs+12   ; [CPU_U] 
         00000085 0000 
     558 00000086 1A0C!         OR        @_SysCtrlRegs+12,#0x0400 ; [CPU_] |276| 
         00000087 0400 
     559                      .dwpsn  file "D:/work/DSP/Steering_Engine/F2833x/v141/DSP2833x_common/source/DSP2833x_SysCtrl.c",line
     560 00000088 1A0C!         OR        @_SysCtrlRegs+12,#0x0800 ; [CPU_] |277| 
         00000089 0800 
     561                      .dwpsn  file "D:/work/DSP/Steering_Engine/F2833x/v141/DSP2833x_common/source/DSP2833x_SysCtrl.c",line
TMS320C2000 Assembler PC v15.12.1 Sat Jun 25 21:32:08 2016

Tools Copyright (c) 1996-2015 Texas Instruments Incorporated
C:\Users\RJKJ_ZGH\AppData\Local\Temp\0869210                         PAGE   12

     562 0000008a 1A0C!         OR        @_SysCtrlRegs+12,#0x0020 ; [CPU_] |278| 
         0000008b 0020 
     563                      .dwpsn  file "D:/work/DSP/Steering_Engine/F2833x/v141/DSP2833x_common/source/DSP2833x_SysCtrl.c",line
     564 0000008c 1A0C!         OR        @_SysCtrlRegs+12,#0x0100 ; [CPU_] |279| 
         0000008d 0100 
     565                      .dwpsn  file "D:/work/DSP/Steering_Engine/F2833x/v141/DSP2833x_common/source/DSP2833x_SysCtrl.c",line
     566 0000008e 180C!         AND       @_SysCtrlRegs+12,#0xfffb ; [CPU_] |285| 
         0000008f FFFB 
     567                      .dwpsn  file "D:/work/DSP/Steering_Engine/F2833x/v141/DSP2833x_common/source/DSP2833x_SysCtrl.c",line
     568 00000090 1A0D!         OR        @_SysCtrlRegs+13,#0x0001 ; [CPU_] |286| 
         00000091 0001 
     569                      .dwpsn  file "D:/work/DSP/Steering_Engine/F2833x/v141/DSP2833x_common/source/DSP2833x_SysCtrl.c",line
     570 00000092 1A0D!         OR        @_SysCtrlRegs+13,#0x0002 ; [CPU_] |287| 
         00000093 0002 
     571                      .dwpsn  file "D:/work/DSP/Steering_Engine/F2833x/v141/DSP2833x_common/source/DSP2833x_SysCtrl.c",line
     572 00000094 1A0D!         OR        @_SysCtrlRegs+13,#0x0004 ; [CPU_] |288| 
         00000095 0004 
     573                      .dwpsn  file "D:/work/DSP/Steering_Engine/F2833x/v141/DSP2833x_common/source/DSP2833x_SysCtrl.c",line
     574 00000096 1A0D!         OR        @_SysCtrlRegs+13,#0x0008 ; [CPU_] |289| 
         00000097 0008 
     575                      .dwpsn  file "D:/work/DSP/Steering_Engine/F2833x/v141/DSP2833x_common/source/DSP2833x_SysCtrl.c",line
     576 00000098 1A0D!         OR        @_SysCtrlRegs+13,#0x0010 ; [CPU_] |290| 
         00000099 0010 
     577                      .dwpsn  file "D:/work/DSP/Steering_Engine/F2833x/v141/DSP2833x_common/source/DSP2833x_SysCtrl.c",line
     578 0000009a 1A0D!         OR        @_SysCtrlRegs+13,#0x0020 ; [CPU_] |291| 
         0000009b 0020 
     579                      .dwpsn  file "D:/work/DSP/Steering_Engine/F2833x/v141/DSP2833x_common/source/DSP2833x_SysCtrl.c",line
     580 0000009c 1A0C!         OR        @_SysCtrlRegs+12,#0x0004 ; [CPU_] |292| 
         0000009d 0004 
     581                      .dwpsn  file "D:/work/DSP/Steering_Engine/F2833x/v141/DSP2833x_common/source/DSP2833x_SysCtrl.c",line
     582 0000009e 1A0D!         OR        @_SysCtrlRegs+13,#0x0400 ; [CPU_] |294| 
         0000009f 0400 
     583                      .dwpsn  file "D:/work/DSP/Steering_Engine/F2833x/v141/DSP2833x_common/source/DSP2833x_SysCtrl.c",line
     584 000000a0 1A0D!         OR        @_SysCtrlRegs+13,#0x0800 ; [CPU_] |295| 
         000000a1 0800 
     585                      .dwpsn  file "D:/work/DSP/Steering_Engine/F2833x/v141/DSP2833x_common/source/DSP2833x_SysCtrl.c",line
     586 000000a2 1A0D!         OR        @_SysCtrlRegs+13,#0x1000 ; [CPU_] |296| 
         000000a3 1000 
     587                      .dwpsn  file "D:/work/DSP/Steering_Engine/F2833x/v141/DSP2833x_common/source/DSP2833x_SysCtrl.c",line
     588 000000a4 1A0D!         OR        @_SysCtrlRegs+13,#0x2000 ; [CPU_] |297| 
         000000a5 2000 
     589                      .dwpsn  file "D:/work/DSP/Steering_Engine/F2833x/v141/DSP2833x_common/source/DSP2833x_SysCtrl.c",line
     590 000000a6 1A0D!         OR        @_SysCtrlRegs+13,#0x0100 ; [CPU_] |298| 
         000000a7 0100 
     591                      .dwpsn  file "D:/work/DSP/Steering_Engine/F2833x/v141/DSP2833x_common/source/DSP2833x_SysCtrl.c",line
     592 000000a8 1A0D!         OR        @_SysCtrlRegs+13,#0x0200 ; [CPU_] |299| 
         000000a9 0200 
     593                      .dwpsn  file "D:/work/DSP/Steering_Engine/F2833x/v141/DSP2833x_common/source/DSP2833x_SysCtrl.c",line
     594 000000aa 1A0D!         OR        @_SysCtrlRegs+13,#0x4000 ; [CPU_] |300| 
         000000ab 4000 
     595                      .dwpsn  file "D:/work/DSP/Steering_Engine/F2833x/v141/DSP2833x_common/source/DSP2833x_SysCtrl.c",line
     596 000000ac 1A0D!         OR        @_SysCtrlRegs+13,#0x8000 ; [CPU_] |301| 
         000000ad 8000 
     597                      .dwpsn  file "D:/work/DSP/Steering_Engine/F2833x/v141/DSP2833x_common/source/DSP2833x_SysCtrl.c",line
     598 000000ae 1A10!         OR        @_SysCtrlRegs+16,#0x0100 ; [CPU_] |303| 
TMS320C2000 Assembler PC v15.12.1 Sat Jun 25 21:32:08 2016

Tools Copyright (c) 1996-2015 Texas Instruments Incorporated
C:\Users\RJKJ_ZGH\AppData\Local\Temp\0869210                         PAGE   13

         000000af 0100 
     599                      .dwpsn  file "D:/work/DSP/Steering_Engine/F2833x/v141/DSP2833x_common/source/DSP2833x_SysCtrl.c",line
     600 000000b0 1A10!         OR        @_SysCtrlRegs+16,#0x0200 ; [CPU_] |304| 
         000000b1 0200 
     601                      .dwpsn  file "D:/work/DSP/Steering_Engine/F2833x/v141/DSP2833x_common/source/DSP2833x_SysCtrl.c",line
     602 000000b2 1A10!         OR        @_SysCtrlRegs+16,#0x0400 ; [CPU_] |305| 
         000000b3 0400 
     603                      .dwpsn  file "D:/work/DSP/Steering_Engine/F2833x/v141/DSP2833x_common/source/DSP2833x_SysCtrl.c",line
     604 000000b4 1A10!         OR        @_SysCtrlRegs+16,#0x0800 ; [CPU_] |307| 
         000000b5 0800 
     605                      .dwpsn  file "D:/work/DSP/Steering_Engine/F2833x/v141/DSP2833x_common/source/DSP2833x_SysCtrl.c",line
     606 000000b6 1A10!         OR        @_SysCtrlRegs+16,#0x1000 ; [CPU_] |308| 
         000000b7 1000 
     607                      .dwpsn  file "D:/work/DSP/Steering_Engine/F2833x/v141/DSP2833x_common/source/DSP2833x_SysCtrl.c",line
     608 000000b8 1A10!         OR        @_SysCtrlRegs+16,#0x2000 ; [CPU_] |309| 
         000000b9 2000 
     609                      .dwpsn  file "D:/work/DSP/Steering_Engine/F2833x/v141/DSP2833x_common/source/DSP2833x_SysCtrl.c",line
     610 000000ba 761A   EDIS
     611                      .dwpsn  file "D:/work/DSP/Steering_Engine/F2833x/v141/DSP2833x_common/source/DSP2833x_SysCtrl.c",line
     612 000000bb FF69          SPM       #0                    ; [CPU_] 
     613              $C$DW$30        .dwtag  DW_TAG_TI_branch
     614                      .dwattr $C$DW$30, DW_AT_low_pc(0x00)
     615                      .dwattr $C$DW$30, DW_AT_TI_return
     616              
     617 000000bc 0006          LRETR     ; [CPU_] 
     618                      ; return occurs ; [] 
     619                      .dwattr $C$DW$28, DW_AT_TI_end_file("D:/work/DSP/Steering_Engine/F2833x/v141/DSP2833x_common/source/D
     620                      .dwattr $C$DW$28, DW_AT_TI_end_line(0x138)
     621                      .dwattr $C$DW$28, DW_AT_TI_end_column(0x01)
     622                      .dwendentry
     623                      .dwendtag $C$DW$28
     624              
     625 000000bd               .sect   ".text"
     626                      .clink
     627                      .global _CsmUnlock
     628              
     629              $C$DW$31        .dwtag  DW_TAG_subprogram
     630                      .dwattr $C$DW$31, DW_AT_name("CsmUnlock")
     631                      .dwattr $C$DW$31, DW_AT_low_pc(_CsmUnlock)
     632                      .dwattr $C$DW$31, DW_AT_high_pc(0x00)
     633                      .dwattr $C$DW$31, DW_AT_TI_symbol_name("_CsmUnlock")
     634                      .dwattr $C$DW$31, DW_AT_external
     635                      .dwattr $C$DW$31, DW_AT_type(*$C$DW$T$19)
     636                      .dwattr $C$DW$31, DW_AT_TI_begin_file("D:/work/DSP/Steering_Engine/F2833x/v141/DSP2833x_common/source
     637                      .dwattr $C$DW$31, DW_AT_TI_begin_line(0x143)
     638                      .dwattr $C$DW$31, DW_AT_TI_begin_column(0x08)
     639                      .dwattr $C$DW$31, DW_AT_TI_max_frame_size(-4)
     640                      .dwpsn  file "D:/work/DSP/Steering_Engine/F2833x/v141/DSP2833x_common/source/DSP2833x_SysCtrl.c",line
     641              
     642                      .dwfde $C$DW$CIE, _CsmUnlock
     643              
     644              ;***************************************************************
     645              ;* FNAME: _CsmUnlock                    FR SIZE:   2           *
     646              ;*                                                             *
     647              ;* FUNCTION ENVIRONMENT                                        *
TMS320C2000 Assembler PC v15.12.1 Sat Jun 25 21:32:08 2016

Tools Copyright (c) 1996-2015 Texas Instruments Incorporated
C:\Users\RJKJ_ZGH\AppData\Local\Temp\0869210                         PAGE   14

     648              ;*                                                             *
     649              ;* FUNCTION PROPERTIES                                         *
     650              ;*                            0 Parameter,  1 Auto,  0 SOE     *
     651              ;***************************************************************
     652              
     653 000000bd       _CsmUnlock:
     654                      .dwcfi  cfa_offset, -2
     655                      .dwcfi  save_reg_to_mem, 26, 0
     656 000000bd FE02          ADDB      SP,#2                 ; [CPU_U] 
     657                      .dwcfi  cfa_offset, -4
     658              $C$DW$32        .dwtag  DW_TAG_variable
     659                      .dwattr $C$DW$32, DW_AT_name("temp")
     660                      .dwattr $C$DW$32, DW_AT_TI_symbol_name("_temp")
     661                      .dwattr $C$DW$32, DW_AT_type(*$C$DW$T$112)
     662                      .dwattr $C$DW$32, DW_AT_location[DW_OP_breg20 -1]
     663              
     664                      .dwpsn  file "D:/work/DSP/Steering_Engine/F2833x/v141/DSP2833x_common/source/DSP2833x_SysCtrl.c",line
     665 000000be 7622   EALLOW
     666                      .dwpsn  file "D:/work/DSP/Steering_Engine/F2833x/v141/DSP2833x_common/source/DSP2833x_SysCtrl.c",line
     667 000000bf 761F!         MOVW      DP,#_CsmRegs          ; [CPU_U] 
         000000c0 0000 
     668 000000c1 2800!         MOV       @_CsmRegs,#65535      ; [CPU_] |331| 
         000000c2 FFFF 
     669                      .dwpsn  file "D:/work/DSP/Steering_Engine/F2833x/v141/DSP2833x_common/source/DSP2833x_SysCtrl.c",line
     670 000000c3 2801!         MOV       @_CsmRegs+1,#65535    ; [CPU_] |332| 
         000000c4 FFFF 
     671                      .dwpsn  file "D:/work/DSP/Steering_Engine/F2833x/v141/DSP2833x_common/source/DSP2833x_SysCtrl.c",line
     672 000000c5 2802!         MOV       @_CsmRegs+2,#65535    ; [CPU_] |333| 
         000000c6 FFFF 
     673                      .dwpsn  file "D:/work/DSP/Steering_Engine/F2833x/v141/DSP2833x_common/source/DSP2833x_SysCtrl.c",line
     674 000000c7 2803!         MOV       @_CsmRegs+3,#65535    ; [CPU_] |334| 
         000000c8 FFFF 
     675                      .dwpsn  file "D:/work/DSP/Steering_Engine/F2833x/v141/DSP2833x_common/source/DSP2833x_SysCtrl.c",line
     676 000000c9 2804!         MOV       @_CsmRegs+4,#65535    ; [CPU_] |335| 
         000000ca FFFF 
     677                      .dwpsn  file "D:/work/DSP/Steering_Engine/F2833x/v141/DSP2833x_common/source/DSP2833x_SysCtrl.c",line
     678 000000cb 2805!         MOV       @_CsmRegs+5,#65535    ; [CPU_] |336| 
         000000cc FFFF 
     679                      .dwpsn  file "D:/work/DSP/Steering_Engine/F2833x/v141/DSP2833x_common/source/DSP2833x_SysCtrl.c",line
     680 000000cd 2806!         MOV       @_CsmRegs+6,#65535    ; [CPU_] |337| 
         000000ce FFFF 
     681                      .dwpsn  file "D:/work/DSP/Steering_Engine/F2833x/v141/DSP2833x_common/source/DSP2833x_SysCtrl.c",line
     682 000000cf 2807!         MOV       @_CsmRegs+7,#65535    ; [CPU_] |338| 
         000000d0 FFFF 
     683                      .dwpsn  file "D:/work/DSP/Steering_Engine/F2833x/v141/DSP2833x_common/source/DSP2833x_SysCtrl.c",line
     684 000000d1 761A   EDIS
     685                      .dwpsn  file "D:/work/DSP/Steering_Engine/F2833x/v141/DSP2833x_common/source/DSP2833x_SysCtrl.c",line
     686 000000d2 761F!         MOVW      DP,#_CsmPwl           ; [CPU_U] 
         000000d3 0000 
     687 000000d4 9200!         MOV       AL,@_CsmPwl           ; [CPU_] |344| 
     688 000000d5 9641          MOV       *-SP[1],AL            ; [CPU_] |344| 
     689                      .dwpsn  file "D:/work/DSP/Steering_Engine/F2833x/v141/DSP2833x_common/source/DSP2833x_SysCtrl.c",line
     690 000000d6 9201!         MOV       AL,@_CsmPwl+1         ; [CPU_] |345| 
     691 000000d7 9641          MOV       *-SP[1],AL            ; [CPU_] |345| 
     692                      .dwpsn  file "D:/work/DSP/Steering_Engine/F2833x/v141/DSP2833x_common/source/DSP2833x_SysCtrl.c",line
TMS320C2000 Assembler PC v15.12.1 Sat Jun 25 21:32:08 2016

Tools Copyright (c) 1996-2015 Texas Instruments Incorporated
C:\Users\RJKJ_ZGH\AppData\Local\Temp\0869210                         PAGE   15

     693 000000d8 9202!         MOV       AL,@_CsmPwl+2         ; [CPU_] |346| 
     694 000000d9 9641          MOV       *-SP[1],AL            ; [CPU_] |346| 
     695                      .dwpsn  file "D:/work/DSP/Steering_Engine/F2833x/v141/DSP2833x_common/source/DSP2833x_SysCtrl.c",line
     696 000000da 9203!         MOV       AL,@_CsmPwl+3         ; [CPU_] |347| 
     697 000000db 9641          MOV       *-SP[1],AL            ; [CPU_] |347| 
     698                      .dwpsn  file "D:/work/DSP/Steering_Engine/F2833x/v141/DSP2833x_common/source/DSP2833x_SysCtrl.c",line
     699 000000dc 9204!         MOV       AL,@_CsmPwl+4         ; [CPU_] |348| 
     700 000000dd 9641          MOV       *-SP[1],AL            ; [CPU_] |348| 
     701                      .dwpsn  file "D:/work/DSP/Steering_Engine/F2833x/v141/DSP2833x_common/source/DSP2833x_SysCtrl.c",line
     702 000000de 9205!         MOV       AL,@_CsmPwl+5         ; [CPU_] |349| 
     703 000000df 9641          MOV       *-SP[1],AL            ; [CPU_] |349| 
     704                      .dwpsn  file "D:/work/DSP/Steering_Engine/F2833x/v141/DSP2833x_common/source/DSP2833x_SysCtrl.c",line
     705 000000e0 9206!         MOV       AL,@_CsmPwl+6         ; [CPU_] |350| 
     706 000000e1 9641          MOV       *-SP[1],AL            ; [CPU_] |350| 
     707                      .dwpsn  file "D:/work/DSP/Steering_Engine/F2833x/v141/DSP2833x_common/source/DSP2833x_SysCtrl.c",line
     708 000000e2 9207!         MOV       AL,@_CsmPwl+7         ; [CPU_] |351| 
     709 000000e3 9641          MOV       *-SP[1],AL            ; [CPU_] |351| 
     710                      .dwpsn  file "D:/work/DSP/Steering_Engine/F2833x/v141/DSP2833x_common/source/DSP2833x_SysCtrl.c",line
     711 000000e4 761F!         MOVW      DP,#_CsmRegs+15       ; [CPU_U] 
         000000e5 0000 
     712 000000e6 400F!         TBIT      @_CsmRegs+15,#0       ; [CPU_] |355| 
     713 000000e7 6D03          B         $C$L8,TC              ; [CPU_] |355| 
     714                      ; branchcc occurs ; [] |355| 
     715                      .dwpsn  file "D:/work/DSP/Steering_Engine/F2833x/v141/DSP2833x_common/source/DSP2833x_SysCtrl.c",line
     716 000000e8 9A01          MOVB      AL,#1                 ; [CPU_] |355| 
     717 000000e9 6F02          B         $C$L9,UNC             ; [CPU_] |355| 
     718                      ; branch occurs ; [] |355| 
     719 000000ea       $C$L8:    
     720                      .dwpsn  file "D:/work/DSP/Steering_Engine/F2833x/v141/DSP2833x_common/source/DSP2833x_SysCtrl.c",line
     721 000000ea 9A00          MOVB      AL,#0                 ; [CPU_] |356| 
     722 000000eb       $C$L9:    
     723                      .dwpsn  file "D:/work/DSP/Steering_Engine/F2833x/v141/DSP2833x_common/source/DSP2833x_SysCtrl.c",line
     724 000000eb FE82          SUBB      SP,#2                 ; [CPU_U] 
     725                      .dwcfi  cfa_offset, -2
     726 000000ec FF69          SPM       #0                    ; [CPU_] 
     727              $C$DW$33        .dwtag  DW_TAG_TI_branch
     728                      .dwattr $C$DW$33, DW_AT_low_pc(0x00)
     729                      .dwattr $C$DW$33, DW_AT_TI_return
     730              
     731 000000ed 0006          LRETR     ; [CPU_] 
     732                      ; return occurs ; [] 
     733                      .dwattr $C$DW$31, DW_AT_TI_end_file("D:/work/DSP/Steering_Engine/F2833x/v141/DSP2833x_common/source/D
     734                      .dwattr $C$DW$31, DW_AT_TI_end_line(0x166)
     735                      .dwattr $C$DW$31, DW_AT_TI_end_column(0x01)
     736                      .dwendentry
     737                      .dwendtag $C$DW$31
     738              
     739              ;**************************************************************
     740              ;* UNDEFINED EXTERNAL REFERENCES                              *
     741              ;**************************************************************
     742                      .global _ADC_cal
     743                      .global _DSP28x_usDelay
     744                      .global _CsmPwl
     745                      .global _FlashRegs
     746                      .global _CsmRegs
TMS320C2000 Assembler PC v15.12.1 Sat Jun 25 21:32:08 2016

Tools Copyright (c) 1996-2015 Texas Instruments Incorporated
C:\Users\RJKJ_ZGH\AppData\Local\Temp\0869210                         PAGE   16

     747                      .global _XintfRegs
     748                      .global _SysCtrlRegs
     749              
     750              ;***************************************************************
     751              ;* TYPE INFORMATION                                            *
     752              ;***************************************************************
     753              
     754              $C$DW$T$20      .dwtag  DW_TAG_structure_type
     755                      .dwattr $C$DW$T$20, DW_AT_name("CSMSCR_BITS")
     756                      .dwattr $C$DW$T$20, DW_AT_byte_size(0x01)
     757              $C$DW$34        .dwtag  DW_TAG_member
     758                      .dwattr $C$DW$34, DW_AT_type(*$C$DW$T$19)
     759                      .dwattr $C$DW$34, DW_AT_name("SECURE")
     760                      .dwattr $C$DW$34, DW_AT_TI_symbol_name("_SECURE")
     761                      .dwattr $C$DW$34, DW_AT_bit_offset(0x0f)
     762                      .dwattr $C$DW$34, DW_AT_bit_size(0x01)
     763                      .dwattr $C$DW$34, DW_AT_data_member_location[DW_OP_plus_uconst 0x0]
     764                      .dwattr $C$DW$34, DW_AT_accessibility(DW_ACCESS_public)
     765              
     766              $C$DW$35        .dwtag  DW_TAG_member
     767                      .dwattr $C$DW$35, DW_AT_type(*$C$DW$T$19)
     768                      .dwattr $C$DW$35, DW_AT_name("rsvd1")
     769                      .dwattr $C$DW$35, DW_AT_TI_symbol_name("_rsvd1")
     770                      .dwattr $C$DW$35, DW_AT_bit_offset(0x01)
     771                      .dwattr $C$DW$35, DW_AT_bit_size(0x0e)
     772                      .dwattr $C$DW$35, DW_AT_data_member_location[DW_OP_plus_uconst 0x0]
     773                      .dwattr $C$DW$35, DW_AT_accessibility(DW_ACCESS_public)
     774              
     775              $C$DW$36        .dwtag  DW_TAG_member
     776                      .dwattr $C$DW$36, DW_AT_type(*$C$DW$T$19)
     777                      .dwattr $C$DW$36, DW_AT_name("FORCESEC")
     778                      .dwattr $C$DW$36, DW_AT_TI_symbol_name("_FORCESEC")
     779                      .dwattr $C$DW$36, DW_AT_bit_offset(0x00)
     780                      .dwattr $C$DW$36, DW_AT_bit_size(0x01)
     781                      .dwattr $C$DW$36, DW_AT_data_member_location[DW_OP_plus_uconst 0x0]
     782                      .dwattr $C$DW$36, DW_AT_accessibility(DW_ACCESS_public)
     783              
     784                      .dwendtag $C$DW$T$20
     785              
     786              
     787              $C$DW$T$21      .dwtag  DW_TAG_union_type
     788                      .dwattr $C$DW$T$21, DW_AT_name("CSMSCR_REG")
     789                      .dwattr $C$DW$T$21, DW_AT_byte_size(0x01)
     790              $C$DW$37        .dwtag  DW_TAG_member
     791                      .dwattr $C$DW$37, DW_AT_type(*$C$DW$T$19)
     792                      .dwattr $C$DW$37, DW_AT_name("all")
     793                      .dwattr $C$DW$37, DW_AT_TI_symbol_name("_all")
     794                      .dwattr $C$DW$37, DW_AT_data_member_location[DW_OP_plus_uconst 0x0]
     795                      .dwattr $C$DW$37, DW_AT_accessibility(DW_ACCESS_public)
     796              
     797              $C$DW$38        .dwtag  DW_TAG_member
     798                      .dwattr $C$DW$38, DW_AT_type(*$C$DW$T$20)
     799                      .dwattr $C$DW$38, DW_AT_name("bit")
     800                      .dwattr $C$DW$38, DW_AT_TI_symbol_name("_bit")
     801                      .dwattr $C$DW$38, DW_AT_data_member_location[DW_OP_plus_uconst 0x0]
TMS320C2000 Assembler PC v15.12.1 Sat Jun 25 21:32:08 2016

Tools Copyright (c) 1996-2015 Texas Instruments Incorporated
C:\Users\RJKJ_ZGH\AppData\Local\Temp\0869210                         PAGE   17

     802                      .dwattr $C$DW$38, DW_AT_accessibility(DW_ACCESS_public)
     803              
     804                      .dwendtag $C$DW$T$21
     805              
     806              
     807              $C$DW$T$22      .dwtag  DW_TAG_structure_type
     808                      .dwattr $C$DW$T$22, DW_AT_name("CSM_PWL")
     809                      .dwattr $C$DW$T$22, DW_AT_byte_size(0x08)
     810              $C$DW$39        .dwtag  DW_TAG_member
     811                      .dwattr $C$DW$39, DW_AT_type(*$C$DW$T$19)
     812                      .dwattr $C$DW$39, DW_AT_name("PSWD0")
     813                      .dwattr $C$DW$39, DW_AT_TI_symbol_name("_PSWD0")
     814                      .dwattr $C$DW$39, DW_AT_data_member_location[DW_OP_plus_uconst 0x0]
     815                      .dwattr $C$DW$39, DW_AT_accessibility(DW_ACCESS_public)
     816              
     817              $C$DW$40        .dwtag  DW_TAG_member
     818                      .dwattr $C$DW$40, DW_AT_type(*$C$DW$T$19)
     819                      .dwattr $C$DW$40, DW_AT_name("PSWD1")
     820                      .dwattr $C$DW$40, DW_AT_TI_symbol_name("_PSWD1")
     821                      .dwattr $C$DW$40, DW_AT_data_member_location[DW_OP_plus_uconst 0x1]
     822                      .dwattr $C$DW$40, DW_AT_accessibility(DW_ACCESS_public)
     823              
     824              $C$DW$41        .dwtag  DW_TAG_member
     825                      .dwattr $C$DW$41, DW_AT_type(*$C$DW$T$19)
     826                      .dwattr $C$DW$41, DW_AT_name("PSWD2")
     827                      .dwattr $C$DW$41, DW_AT_TI_symbol_name("_PSWD2")
     828                      .dwattr $C$DW$41, DW_AT_data_member_location[DW_OP_plus_uconst 0x2]
     829                      .dwattr $C$DW$41, DW_AT_accessibility(DW_ACCESS_public)
     830              
     831              $C$DW$42        .dwtag  DW_TAG_member
     832                      .dwattr $C$DW$42, DW_AT_type(*$C$DW$T$19)
     833                      .dwattr $C$DW$42, DW_AT_name("PSWD3")
     834                      .dwattr $C$DW$42, DW_AT_TI_symbol_name("_PSWD3")
     835                      .dwattr $C$DW$42, DW_AT_data_member_location[DW_OP_plus_uconst 0x3]
     836                      .dwattr $C$DW$42, DW_AT_accessibility(DW_ACCESS_public)
     837              
     838              $C$DW$43        .dwtag  DW_TAG_member
     839                      .dwattr $C$DW$43, DW_AT_type(*$C$DW$T$19)
     840                      .dwattr $C$DW$43, DW_AT_name("PSWD4")
     841                      .dwattr $C$DW$43, DW_AT_TI_symbol_name("_PSWD4")
     842                      .dwattr $C$DW$43, DW_AT_data_member_location[DW_OP_plus_uconst 0x4]
     843                      .dwattr $C$DW$43, DW_AT_accessibility(DW_ACCESS_public)
     844              
     845              $C$DW$44        .dwtag  DW_TAG_member
     846                      .dwattr $C$DW$44, DW_AT_type(*$C$DW$T$19)
     847                      .dwattr $C$DW$44, DW_AT_name("PSWD5")
     848                      .dwattr $C$DW$44, DW_AT_TI_symbol_name("_PSWD5")
     849                      .dwattr $C$DW$44, DW_AT_data_member_location[DW_OP_plus_uconst 0x5]
     850                      .dwattr $C$DW$44, DW_AT_accessibility(DW_ACCESS_public)
     851              
     852              $C$DW$45        .dwtag  DW_TAG_member
     853                      .dwattr $C$DW$45, DW_AT_type(*$C$DW$T$19)
     854                      .dwattr $C$DW$45, DW_AT_name("PSWD6")
     855                      .dwattr $C$DW$45, DW_AT_TI_symbol_name("_PSWD6")
     856                      .dwattr $C$DW$45, DW_AT_data_member_location[DW_OP_plus_uconst 0x6]
TMS320C2000 Assembler PC v15.12.1 Sat Jun 25 21:32:08 2016

Tools Copyright (c) 1996-2015 Texas Instruments Incorporated
C:\Users\RJKJ_ZGH\AppData\Local\Temp\0869210                         PAGE   18

     857                      .dwattr $C$DW$45, DW_AT_accessibility(DW_ACCESS_public)
     858              
     859              $C$DW$46        .dwtag  DW_TAG_member
     860                      .dwattr $C$DW$46, DW_AT_type(*$C$DW$T$19)
     861                      .dwattr $C$DW$46, DW_AT_name("PSWD7")
     862                      .dwattr $C$DW$46, DW_AT_TI_symbol_name("_PSWD7")
     863                      .dwattr $C$DW$46, DW_AT_data_member_location[DW_OP_plus_uconst 0x7]
     864                      .dwattr $C$DW$46, DW_AT_accessibility(DW_ACCESS_public)
     865              
     866                      .dwendtag $C$DW$T$22
     867              
     868              $C$DW$47        .dwtag  DW_TAG_TI_far_type
     869                      .dwattr $C$DW$47, DW_AT_type(*$C$DW$T$22)
     870              
     871              $C$DW$T$77      .dwtag  DW_TAG_volatile_type
     872                      .dwattr $C$DW$T$77, DW_AT_type(*$C$DW$47)
     873              
     874              
     875              $C$DW$T$23      .dwtag  DW_TAG_structure_type
     876                      .dwattr $C$DW$T$23, DW_AT_name("CSM_REGS")
     877                      .dwattr $C$DW$T$23, DW_AT_byte_size(0x10)
     878              $C$DW$48        .dwtag  DW_TAG_member
     879                      .dwattr $C$DW$48, DW_AT_type(*$C$DW$T$19)
     880                      .dwattr $C$DW$48, DW_AT_name("KEY0")
     881                      .dwattr $C$DW$48, DW_AT_TI_symbol_name("_KEY0")
     882                      .dwattr $C$DW$48, DW_AT_data_member_location[DW_OP_plus_uconst 0x0]
     883                      .dwattr $C$DW$48, DW_AT_accessibility(DW_ACCESS_public)
     884              
     885              $C$DW$49        .dwtag  DW_TAG_member
     886                      .dwattr $C$DW$49, DW_AT_type(*$C$DW$T$19)
     887                      .dwattr $C$DW$49, DW_AT_name("KEY1")
     888                      .dwattr $C$DW$49, DW_AT_TI_symbol_name("_KEY1")
     889                      .dwattr $C$DW$49, DW_AT_data_member_location[DW_OP_plus_uconst 0x1]
     890                      .dwattr $C$DW$49, DW_AT_accessibility(DW_ACCESS_public)
     891              
     892              $C$DW$50        .dwtag  DW_TAG_member
     893                      .dwattr $C$DW$50, DW_AT_type(*$C$DW$T$19)
     894                      .dwattr $C$DW$50, DW_AT_name("KEY2")
     895                      .dwattr $C$DW$50, DW_AT_TI_symbol_name("_KEY2")
     896                      .dwattr $C$DW$50, DW_AT_data_member_location[DW_OP_plus_uconst 0x2]
     897                      .dwattr $C$DW$50, DW_AT_accessibility(DW_ACCESS_public)
     898              
     899              $C$DW$51        .dwtag  DW_TAG_member
     900                      .dwattr $C$DW$51, DW_AT_type(*$C$DW$T$19)
     901                      .dwattr $C$DW$51, DW_AT_name("KEY3")
     902                      .dwattr $C$DW$51, DW_AT_TI_symbol_name("_KEY3")
     903                      .dwattr $C$DW$51, DW_AT_data_member_location[DW_OP_plus_uconst 0x3]
     904                      .dwattr $C$DW$51, DW_AT_accessibility(DW_ACCESS_public)
     905              
     906              $C$DW$52        .dwtag  DW_TAG_member
     907                      .dwattr $C$DW$52, DW_AT_type(*$C$DW$T$19)
     908                      .dwattr $C$DW$52, DW_AT_name("KEY4")
     909                      .dwattr $C$DW$52, DW_AT_TI_symbol_name("_KEY4")
     910                      .dwattr $C$DW$52, DW_AT_data_member_location[DW_OP_plus_uconst 0x4]
     911                      .dwattr $C$DW$52, DW_AT_accessibility(DW_ACCESS_public)
TMS320C2000 Assembler PC v15.12.1 Sat Jun 25 21:32:08 2016

Tools Copyright (c) 1996-2015 Texas Instruments Incorporated
C:\Users\RJKJ_ZGH\AppData\Local\Temp\0869210                         PAGE   19

     912              
     913              $C$DW$53        .dwtag  DW_TAG_member
     914                      .dwattr $C$DW$53, DW_AT_type(*$C$DW$T$19)
     915                      .dwattr $C$DW$53, DW_AT_name("KEY5")
     916                      .dwattr $C$DW$53, DW_AT_TI_symbol_name("_KEY5")
     917                      .dwattr $C$DW$53, DW_AT_data_member_location[DW_OP_plus_uconst 0x5]
     918                      .dwattr $C$DW$53, DW_AT_accessibility(DW_ACCESS_public)
     919              
     920              $C$DW$54        .dwtag  DW_TAG_member
     921                      .dwattr $C$DW$54, DW_AT_type(*$C$DW$T$19)
     922                      .dwattr $C$DW$54, DW_AT_name("KEY6")
     923                      .dwattr $C$DW$54, DW_AT_TI_symbol_name("_KEY6")
     924                      .dwattr $C$DW$54, DW_AT_data_member_location[DW_OP_plus_uconst 0x6]
     925                      .dwattr $C$DW$54, DW_AT_accessibility(DW_ACCESS_public)
     926              
     927              $C$DW$55        .dwtag  DW_TAG_member
     928                      .dwattr $C$DW$55, DW_AT_type(*$C$DW$T$19)
     929                      .dwattr $C$DW$55, DW_AT_name("KEY7")
     930                      .dwattr $C$DW$55, DW_AT_TI_symbol_name("_KEY7")
     931                      .dwattr $C$DW$55, DW_AT_data_member_location[DW_OP_plus_uconst 0x7]
     932                      .dwattr $C$DW$55, DW_AT_accessibility(DW_ACCESS_public)
     933              
     934              $C$DW$56        .dwtag  DW_TAG_member
     935                      .dwattr $C$DW$56, DW_AT_type(*$C$DW$T$19)
     936                      .dwattr $C$DW$56, DW_AT_name("rsvd1")
     937                      .dwattr $C$DW$56, DW_AT_TI_symbol_name("_rsvd1")
     938                      .dwattr $C$DW$56, DW_AT_data_member_location[DW_OP_plus_uconst 0x8]
     939                      .dwattr $C$DW$56, DW_AT_accessibility(DW_ACCESS_public)
     940              
     941              $C$DW$57        .dwtag  DW_TAG_member
     942                      .dwattr $C$DW$57, DW_AT_type(*$C$DW$T$19)
     943                      .dwattr $C$DW$57, DW_AT_name("rsvd2")
     944                      .dwattr $C$DW$57, DW_AT_TI_symbol_name("_rsvd2")
     945                      .dwattr $C$DW$57, DW_AT_data_member_location[DW_OP_plus_uconst 0x9]
     946                      .dwattr $C$DW$57, DW_AT_accessibility(DW_ACCESS_public)
     947              
     948              $C$DW$58        .dwtag  DW_TAG_member
     949                      .dwattr $C$DW$58, DW_AT_type(*$C$DW$T$19)
     950                      .dwattr $C$DW$58, DW_AT_name("rsvd3")
     951                      .dwattr $C$DW$58, DW_AT_TI_symbol_name("_rsvd3")
     952                      .dwattr $C$DW$58, DW_AT_data_member_location[DW_OP_plus_uconst 0xa]
     953                      .dwattr $C$DW$58, DW_AT_accessibility(DW_ACCESS_public)
     954              
     955              $C$DW$59        .dwtag  DW_TAG_member
     956                      .dwattr $C$DW$59, DW_AT_type(*$C$DW$T$19)
     957                      .dwattr $C$DW$59, DW_AT_name("rsvd4")
     958                      .dwattr $C$DW$59, DW_AT_TI_symbol_name("_rsvd4")
     959                      .dwattr $C$DW$59, DW_AT_data_member_location[DW_OP_plus_uconst 0xb]
     960                      .dwattr $C$DW$59, DW_AT_accessibility(DW_ACCESS_public)
     961              
     962              $C$DW$60        .dwtag  DW_TAG_member
     963                      .dwattr $C$DW$60, DW_AT_type(*$C$DW$T$19)
     964                      .dwattr $C$DW$60, DW_AT_name("rsvd5")
     965                      .dwattr $C$DW$60, DW_AT_TI_symbol_name("_rsvd5")
     966                      .dwattr $C$DW$60, DW_AT_data_member_location[DW_OP_plus_uconst 0xc]
TMS320C2000 Assembler PC v15.12.1 Sat Jun 25 21:32:08 2016

Tools Copyright (c) 1996-2015 Texas Instruments Incorporated
C:\Users\RJKJ_ZGH\AppData\Local\Temp\0869210                         PAGE   20

     967                      .dwattr $C$DW$60, DW_AT_accessibility(DW_ACCESS_public)
     968              
     969              $C$DW$61        .dwtag  DW_TAG_member
     970                      .dwattr $C$DW$61, DW_AT_type(*$C$DW$T$19)
     971                      .dwattr $C$DW$61, DW_AT_name("rsvd6")
     972                      .dwattr $C$DW$61, DW_AT_TI_symbol_name("_rsvd6")
     973                      .dwattr $C$DW$61, DW_AT_data_member_location[DW_OP_plus_uconst 0xd]
     974                      .dwattr $C$DW$61, DW_AT_accessibility(DW_ACCESS_public)
     975              
     976              $C$DW$62        .dwtag  DW_TAG_member
     977                      .dwattr $C$DW$62, DW_AT_type(*$C$DW$T$19)
     978                      .dwattr $C$DW$62, DW_AT_name("rsvd7")
     979                      .dwattr $C$DW$62, DW_AT_TI_symbol_name("_rsvd7")
     980                      .dwattr $C$DW$62, DW_AT_data_member_location[DW_OP_plus_uconst 0xe]
     981                      .dwattr $C$DW$62, DW_AT_accessibility(DW_ACCESS_public)
     982              
     983              $C$DW$63        .dwtag  DW_TAG_member
     984                      .dwattr $C$DW$63, DW_AT_type(*$C$DW$T$21)
     985                      .dwattr $C$DW$63, DW_AT_name("CSMSCR")
     986                      .dwattr $C$DW$63, DW_AT_TI_symbol_name("_CSMSCR")
     987                      .dwattr $C$DW$63, DW_AT_data_member_location[DW_OP_plus_uconst 0xf]
     988                      .dwattr $C$DW$63, DW_AT_accessibility(DW_ACCESS_public)
     989              
     990                      .dwendtag $C$DW$T$23
     991              
     992              $C$DW$64        .dwtag  DW_TAG_TI_far_type
     993                      .dwattr $C$DW$64, DW_AT_type(*$C$DW$T$23)
     994              
     995              $C$DW$T$78      .dwtag  DW_TAG_volatile_type
     996                      .dwattr $C$DW$T$78, DW_AT_type(*$C$DW$64)
     997              
     998              
     999              $C$DW$T$24      .dwtag  DW_TAG_structure_type
    1000                      .dwattr $C$DW$T$24, DW_AT_name("FACTIVEWAIT_BITS")
    1001                      .dwattr $C$DW$T$24, DW_AT_byte_size(0x01)
    1002              $C$DW$65        .dwtag  DW_TAG_member
    1003                      .dwattr $C$DW$65, DW_AT_type(*$C$DW$T$19)
    1004                      .dwattr $C$DW$65, DW_AT_name("ACTIVEWAIT")
    1005                      .dwattr $C$DW$65, DW_AT_TI_symbol_name("_ACTIVEWAIT")
    1006                      .dwattr $C$DW$65, DW_AT_bit_offset(0x07)
    1007                      .dwattr $C$DW$65, DW_AT_bit_size(0x09)
    1008                      .dwattr $C$DW$65, DW_AT_data_member_location[DW_OP_plus_uconst 0x0]
    1009                      .dwattr $C$DW$65, DW_AT_accessibility(DW_ACCESS_public)
    1010              
    1011              $C$DW$66        .dwtag  DW_TAG_member
    1012                      .dwattr $C$DW$66, DW_AT_type(*$C$DW$T$19)
    1013                      .dwattr $C$DW$66, DW_AT_name("rsvd")
    1014                      .dwattr $C$DW$66, DW_AT_TI_symbol_name("_rsvd")
    1015                      .dwattr $C$DW$66, DW_AT_bit_offset(0x00)
    1016                      .dwattr $C$DW$66, DW_AT_bit_size(0x07)
    1017                      .dwattr $C$DW$66, DW_AT_data_member_location[DW_OP_plus_uconst 0x0]
    1018                      .dwattr $C$DW$66, DW_AT_accessibility(DW_ACCESS_public)
    1019              
    1020                      .dwendtag $C$DW$T$24
    1021              
TMS320C2000 Assembler PC v15.12.1 Sat Jun 25 21:32:08 2016

Tools Copyright (c) 1996-2015 Texas Instruments Incorporated
C:\Users\RJKJ_ZGH\AppData\Local\Temp\0869210                         PAGE   21

    1022              
    1023              $C$DW$T$25      .dwtag  DW_TAG_union_type
    1024                      .dwattr $C$DW$T$25, DW_AT_name("FACTIVEWAIT_REG")
    1025                      .dwattr $C$DW$T$25, DW_AT_byte_size(0x01)
    1026              $C$DW$67        .dwtag  DW_TAG_member
    1027                      .dwattr $C$DW$67, DW_AT_type(*$C$DW$T$19)
    1028                      .dwattr $C$DW$67, DW_AT_name("all")
    1029                      .dwattr $C$DW$67, DW_AT_TI_symbol_name("_all")
    1030                      .dwattr $C$DW$67, DW_AT_data_member_location[DW_OP_plus_uconst 0x0]
    1031                      .dwattr $C$DW$67, DW_AT_accessibility(DW_ACCESS_public)
    1032              
    1033              $C$DW$68        .dwtag  DW_TAG_member
    1034                      .dwattr $C$DW$68, DW_AT_type(*$C$DW$T$24)
    1035                      .dwattr $C$DW$68, DW_AT_name("bit")
    1036                      .dwattr $C$DW$68, DW_AT_TI_symbol_name("_bit")
    1037                      .dwattr $C$DW$68, DW_AT_data_member_location[DW_OP_plus_uconst 0x0]
    1038                      .dwattr $C$DW$68, DW_AT_accessibility(DW_ACCESS_public)
    1039              
    1040                      .dwendtag $C$DW$T$25
    1041              
    1042              
    1043              $C$DW$T$26      .dwtag  DW_TAG_structure_type
    1044                      .dwattr $C$DW$T$26, DW_AT_name("FBANKWAIT_BITS")
    1045                      .dwattr $C$DW$T$26, DW_AT_byte_size(0x01)
    1046              $C$DW$69        .dwtag  DW_TAG_member
    1047                      .dwattr $C$DW$69, DW_AT_type(*$C$DW$T$19)
    1048                      .dwattr $C$DW$69, DW_AT_name("RANDWAIT")
    1049                      .dwattr $C$DW$69, DW_AT_TI_symbol_name("_RANDWAIT")
    1050                      .dwattr $C$DW$69, DW_AT_bit_offset(0x0c)
    1051                      .dwattr $C$DW$69, DW_AT_bit_size(0x04)
    1052                      .dwattr $C$DW$69, DW_AT_data_member_location[DW_OP_plus_uconst 0x0]
    1053                      .dwattr $C$DW$69, DW_AT_accessibility(DW_ACCESS_public)
    1054              
    1055              $C$DW$70        .dwtag  DW_TAG_member
    1056                      .dwattr $C$DW$70, DW_AT_type(*$C$DW$T$19)
    1057                      .dwattr $C$DW$70, DW_AT_name("rsvd1")
    1058                      .dwattr $C$DW$70, DW_AT_TI_symbol_name("_rsvd1")
    1059                      .dwattr $C$DW$70, DW_AT_bit_offset(0x08)
    1060                      .dwattr $C$DW$70, DW_AT_bit_size(0x04)
    1061                      .dwattr $C$DW$70, DW_AT_data_member_location[DW_OP_plus_uconst 0x0]
    1062                      .dwattr $C$DW$70, DW_AT_accessibility(DW_ACCESS_public)
    1063              
    1064              $C$DW$71        .dwtag  DW_TAG_member
    1065                      .dwattr $C$DW$71, DW_AT_type(*$C$DW$T$19)
    1066                      .dwattr $C$DW$71, DW_AT_name("PAGEWAIT")
    1067                      .dwattr $C$DW$71, DW_AT_TI_symbol_name("_PAGEWAIT")
    1068                      .dwattr $C$DW$71, DW_AT_bit_offset(0x04)
    1069                      .dwattr $C$DW$71, DW_AT_bit_size(0x04)
    1070                      .dwattr $C$DW$71, DW_AT_data_member_location[DW_OP_plus_uconst 0x0]
    1071                      .dwattr $C$DW$71, DW_AT_accessibility(DW_ACCESS_public)
    1072              
    1073              $C$DW$72        .dwtag  DW_TAG_member
    1074                      .dwattr $C$DW$72, DW_AT_type(*$C$DW$T$19)
    1075                      .dwattr $C$DW$72, DW_AT_name("rsvd2")
    1076                      .dwattr $C$DW$72, DW_AT_TI_symbol_name("_rsvd2")
TMS320C2000 Assembler PC v15.12.1 Sat Jun 25 21:32:08 2016

Tools Copyright (c) 1996-2015 Texas Instruments Incorporated
C:\Users\RJKJ_ZGH\AppData\Local\Temp\0869210                         PAGE   22

    1077                      .dwattr $C$DW$72, DW_AT_bit_offset(0x00)
    1078                      .dwattr $C$DW$72, DW_AT_bit_size(0x04)
    1079                      .dwattr $C$DW$72, DW_AT_data_member_location[DW_OP_plus_uconst 0x0]
    1080                      .dwattr $C$DW$72, DW_AT_accessibility(DW_ACCESS_public)
    1081              
    1082                      .dwendtag $C$DW$T$26
    1083              
    1084              
    1085              $C$DW$T$27      .dwtag  DW_TAG_union_type
    1086                      .dwattr $C$DW$T$27, DW_AT_name("FBANKWAIT_REG")
    1087                      .dwattr $C$DW$T$27, DW_AT_byte_size(0x01)
    1088              $C$DW$73        .dwtag  DW_TAG_member
    1089                      .dwattr $C$DW$73, DW_AT_type(*$C$DW$T$19)
    1090                      .dwattr $C$DW$73, DW_AT_name("all")
    1091                      .dwattr $C$DW$73, DW_AT_TI_symbol_name("_all")
    1092                      .dwattr $C$DW$73, DW_AT_data_member_location[DW_OP_plus_uconst 0x0]
    1093                      .dwattr $C$DW$73, DW_AT_accessibility(DW_ACCESS_public)
    1094              
    1095              $C$DW$74        .dwtag  DW_TAG_member
    1096                      .dwattr $C$DW$74, DW_AT_type(*$C$DW$T$26)
    1097                      .dwattr $C$DW$74, DW_AT_name("bit")
    1098                      .dwattr $C$DW$74, DW_AT_TI_symbol_name("_bit")
    1099                      .dwattr $C$DW$74, DW_AT_data_member_location[DW_OP_plus_uconst 0x0]
    1100                      .dwattr $C$DW$74, DW_AT_accessibility(DW_ACCESS_public)
    1101              
    1102                      .dwendtag $C$DW$T$27
    1103              
    1104              
    1105              $C$DW$T$28      .dwtag  DW_TAG_structure_type
    1106                      .dwattr $C$DW$T$28, DW_AT_name("FLASH_REGS")
    1107                      .dwattr $C$DW$T$28, DW_AT_byte_size(0x08)
    1108              $C$DW$75        .dwtag  DW_TAG_member
    1109                      .dwattr $C$DW$75, DW_AT_type(*$C$DW$T$30)
    1110                      .dwattr $C$DW$75, DW_AT_name("FOPT")
    1111                      .dwattr $C$DW$75, DW_AT_TI_symbol_name("_FOPT")
    1112                      .dwattr $C$DW$75, DW_AT_data_member_location[DW_OP_plus_uconst 0x0]
    1113                      .dwattr $C$DW$75, DW_AT_accessibility(DW_ACCESS_public)
    1114              
    1115              $C$DW$76        .dwtag  DW_TAG_member
    1116                      .dwattr $C$DW$76, DW_AT_type(*$C$DW$T$19)
    1117                      .dwattr $C$DW$76, DW_AT_name("rsvd1")
    1118                      .dwattr $C$DW$76, DW_AT_TI_symbol_name("_rsvd1")
    1119                      .dwattr $C$DW$76, DW_AT_data_member_location[DW_OP_plus_uconst 0x1]
    1120                      .dwattr $C$DW$76, DW_AT_accessibility(DW_ACCESS_public)
    1121              
    1122              $C$DW$77        .dwtag  DW_TAG_member
    1123                      .dwattr $C$DW$77, DW_AT_type(*$C$DW$T$34)
    1124                      .dwattr $C$DW$77, DW_AT_name("FPWR")
    1125                      .dwattr $C$DW$77, DW_AT_TI_symbol_name("_FPWR")
    1126                      .dwattr $C$DW$77, DW_AT_data_member_location[DW_OP_plus_uconst 0x2]
    1127                      .dwattr $C$DW$77, DW_AT_accessibility(DW_ACCESS_public)
    1128              
    1129              $C$DW$78        .dwtag  DW_TAG_member
    1130                      .dwattr $C$DW$78, DW_AT_type(*$C$DW$T$36)
    1131                      .dwattr $C$DW$78, DW_AT_name("FSTATUS")
TMS320C2000 Assembler PC v15.12.1 Sat Jun 25 21:32:08 2016

Tools Copyright (c) 1996-2015 Texas Instruments Incorporated
C:\Users\RJKJ_ZGH\AppData\Local\Temp\0869210                         PAGE   23

    1132                      .dwattr $C$DW$78, DW_AT_TI_symbol_name("_FSTATUS")
    1133                      .dwattr $C$DW$78, DW_AT_data_member_location[DW_OP_plus_uconst 0x3]
    1134                      .dwattr $C$DW$78, DW_AT_accessibility(DW_ACCESS_public)
    1135              
    1136              $C$DW$79        .dwtag  DW_TAG_member
    1137                      .dwattr $C$DW$79, DW_AT_type(*$C$DW$T$38)
    1138                      .dwattr $C$DW$79, DW_AT_name("FSTDBYWAIT")
    1139                      .dwattr $C$DW$79, DW_AT_TI_symbol_name("_FSTDBYWAIT")
    1140                      .dwattr $C$DW$79, DW_AT_data_member_location[DW_OP_plus_uconst 0x4]
    1141                      .dwattr $C$DW$79, DW_AT_accessibility(DW_ACCESS_public)
    1142              
    1143              $C$DW$80        .dwtag  DW_TAG_member
    1144                      .dwattr $C$DW$80, DW_AT_type(*$C$DW$T$25)
    1145                      .dwattr $C$DW$80, DW_AT_name("FACTIVEWAIT")
    1146                      .dwattr $C$DW$80, DW_AT_TI_symbol_name("_FACTIVEWAIT")
    1147                      .dwattr $C$DW$80, DW_AT_data_member_location[DW_OP_plus_uconst 0x5]
    1148                      .dwattr $C$DW$80, DW_AT_accessibility(DW_ACCESS_public)
    1149              
    1150              $C$DW$81        .dwtag  DW_TAG_member
    1151                      .dwattr $C$DW$81, DW_AT_type(*$C$DW$T$27)
    1152                      .dwattr $C$DW$81, DW_AT_name("FBANKWAIT")
    1153                      .dwattr $C$DW$81, DW_AT_TI_symbol_name("_FBANKWAIT")
    1154                      .dwattr $C$DW$81, DW_AT_data_member_location[DW_OP_plus_uconst 0x6]
    1155                      .dwattr $C$DW$81, DW_AT_accessibility(DW_ACCESS_public)
    1156              
    1157              $C$DW$82        .dwtag  DW_TAG_member
    1158                      .dwattr $C$DW$82, DW_AT_type(*$C$DW$T$32)
    1159                      .dwattr $C$DW$82, DW_AT_name("FOTPWAIT")
    1160                      .dwattr $C$DW$82, DW_AT_TI_symbol_name("_FOTPWAIT")
    1161                      .dwattr $C$DW$82, DW_AT_data_member_location[DW_OP_plus_uconst 0x7]
    1162                      .dwattr $C$DW$82, DW_AT_accessibility(DW_ACCESS_public)
    1163              
    1164                      .dwendtag $C$DW$T$28
    1165              
    1166              $C$DW$83        .dwtag  DW_TAG_TI_far_type
    1167                      .dwattr $C$DW$83, DW_AT_type(*$C$DW$T$28)
    1168              
    1169              $C$DW$T$83      .dwtag  DW_TAG_volatile_type
    1170                      .dwattr $C$DW$T$83, DW_AT_type(*$C$DW$83)
    1171              
    1172              
    1173              $C$DW$T$29      .dwtag  DW_TAG_structure_type
    1174                      .dwattr $C$DW$T$29, DW_AT_name("FOPT_BITS")
    1175                      .dwattr $C$DW$T$29, DW_AT_byte_size(0x01)
    1176              $C$DW$84        .dwtag  DW_TAG_member
    1177                      .dwattr $C$DW$84, DW_AT_type(*$C$DW$T$19)
    1178                      .dwattr $C$DW$84, DW_AT_name("ENPIPE")
    1179                      .dwattr $C$DW$84, DW_AT_TI_symbol_name("_ENPIPE")
    1180                      .dwattr $C$DW$84, DW_AT_bit_offset(0x0f)
    1181                      .dwattr $C$DW$84, DW_AT_bit_size(0x01)
    1182                      .dwattr $C$DW$84, DW_AT_data_member_location[DW_OP_plus_uconst 0x0]
    1183                      .dwattr $C$DW$84, DW_AT_accessibility(DW_ACCESS_public)
    1184              
    1185              $C$DW$85        .dwtag  DW_TAG_member
    1186                      .dwattr $C$DW$85, DW_AT_type(*$C$DW$T$19)
TMS320C2000 Assembler PC v15.12.1 Sat Jun 25 21:32:08 2016

Tools Copyright (c) 1996-2015 Texas Instruments Incorporated
C:\Users\RJKJ_ZGH\AppData\Local\Temp\0869210                         PAGE   24

    1187                      .dwattr $C$DW$85, DW_AT_name("rsvd")
    1188                      .dwattr $C$DW$85, DW_AT_TI_symbol_name("_rsvd")
    1189                      .dwattr $C$DW$85, DW_AT_bit_offset(0x00)
    1190                      .dwattr $C$DW$85, DW_AT_bit_size(0x0f)
    1191                      .dwattr $C$DW$85, DW_AT_data_member_location[DW_OP_plus_uconst 0x0]
    1192                      .dwattr $C$DW$85, DW_AT_accessibility(DW_ACCESS_public)
    1193              
    1194                      .dwendtag $C$DW$T$29
    1195              
    1196              
    1197              $C$DW$T$30      .dwtag  DW_TAG_union_type
    1198                      .dwattr $C$DW$T$30, DW_AT_name("FOPT_REG")
    1199                      .dwattr $C$DW$T$30, DW_AT_byte_size(0x01)
    1200              $C$DW$86        .dwtag  DW_TAG_member
    1201                      .dwattr $C$DW$86, DW_AT_type(*$C$DW$T$19)
    1202                      .dwattr $C$DW$86, DW_AT_name("all")
    1203                      .dwattr $C$DW$86, DW_AT_TI_symbol_name("_all")
    1204                      .dwattr $C$DW$86, DW_AT_data_member_location[DW_OP_plus_uconst 0x0]
    1205                      .dwattr $C$DW$86, DW_AT_accessibility(DW_ACCESS_public)
    1206              
    1207              $C$DW$87        .dwtag  DW_TAG_member
    1208                      .dwattr $C$DW$87, DW_AT_type(*$C$DW$T$29)
    1209                      .dwattr $C$DW$87, DW_AT_name("bit")
    1210                      .dwattr $C$DW$87, DW_AT_TI_symbol_name("_bit")
    1211                      .dwattr $C$DW$87, DW_AT_data_member_location[DW_OP_plus_uconst 0x0]
    1212                      .dwattr $C$DW$87, DW_AT_accessibility(DW_ACCESS_public)
    1213              
    1214                      .dwendtag $C$DW$T$30
    1215              
    1216              
    1217              $C$DW$T$31      .dwtag  DW_TAG_structure_type
    1218                      .dwattr $C$DW$T$31, DW_AT_name("FOTPWAIT_BITS")
    1219                      .dwattr $C$DW$T$31, DW_AT_byte_size(0x01)
    1220              $C$DW$88        .dwtag  DW_TAG_member
    1221                      .dwattr $C$DW$88, DW_AT_type(*$C$DW$T$19)
    1222                      .dwattr $C$DW$88, DW_AT_name("OTPWAIT")
    1223                      .dwattr $C$DW$88, DW_AT_TI_symbol_name("_OTPWAIT")
    1224                      .dwattr $C$DW$88, DW_AT_bit_offset(0x0b)
    1225                      .dwattr $C$DW$88, DW_AT_bit_size(0x05)
    1226                      .dwattr $C$DW$88, DW_AT_data_member_location[DW_OP_plus_uconst 0x0]
    1227                      .dwattr $C$DW$88, DW_AT_accessibility(DW_ACCESS_public)
    1228              
    1229              $C$DW$89        .dwtag  DW_TAG_member
    1230                      .dwattr $C$DW$89, DW_AT_type(*$C$DW$T$19)
    1231                      .dwattr $C$DW$89, DW_AT_name("rsvd")
    1232                      .dwattr $C$DW$89, DW_AT_TI_symbol_name("_rsvd")
    1233                      .dwattr $C$DW$89, DW_AT_bit_offset(0x00)
    1234                      .dwattr $C$DW$89, DW_AT_bit_size(0x0b)
    1235                      .dwattr $C$DW$89, DW_AT_data_member_location[DW_OP_plus_uconst 0x0]
    1236                      .dwattr $C$DW$89, DW_AT_accessibility(DW_ACCESS_public)
    1237              
    1238                      .dwendtag $C$DW$T$31
    1239              
    1240              
    1241              $C$DW$T$32      .dwtag  DW_TAG_union_type
TMS320C2000 Assembler PC v15.12.1 Sat Jun 25 21:32:08 2016

Tools Copyright (c) 1996-2015 Texas Instruments Incorporated
C:\Users\RJKJ_ZGH\AppData\Local\Temp\0869210                         PAGE   25

    1242                      .dwattr $C$DW$T$32, DW_AT_name("FOTPWAIT_REG")
    1243                      .dwattr $C$DW$T$32, DW_AT_byte_size(0x01)
    1244              $C$DW$90        .dwtag  DW_TAG_member
    1245                      .dwattr $C$DW$90, DW_AT_type(*$C$DW$T$19)
    1246                      .dwattr $C$DW$90, DW_AT_name("all")
    1247                      .dwattr $C$DW$90, DW_AT_TI_symbol_name("_all")
    1248                      .dwattr $C$DW$90, DW_AT_data_member_location[DW_OP_plus_uconst 0x0]
    1249                      .dwattr $C$DW$90, DW_AT_accessibility(DW_ACCESS_public)
    1250              
    1251              $C$DW$91        .dwtag  DW_TAG_member
    1252                      .dwattr $C$DW$91, DW_AT_type(*$C$DW$T$31)
    1253                      .dwattr $C$DW$91, DW_AT_name("bit")
    1254                      .dwattr $C$DW$91, DW_AT_TI_symbol_name("_bit")
    1255                      .dwattr $C$DW$91, DW_AT_data_member_location[DW_OP_plus_uconst 0x0]
    1256                      .dwattr $C$DW$91, DW_AT_accessibility(DW_ACCESS_public)
    1257              
    1258                      .dwendtag $C$DW$T$32
    1259              
    1260              
    1261              $C$DW$T$33      .dwtag  DW_TAG_structure_type
    1262                      .dwattr $C$DW$T$33, DW_AT_name("FPWR_BITS")
    1263                      .dwattr $C$DW$T$33, DW_AT_byte_size(0x01)
    1264              $C$DW$92        .dwtag  DW_TAG_member
    1265                      .dwattr $C$DW$92, DW_AT_type(*$C$DW$T$19)
    1266                      .dwattr $C$DW$92, DW_AT_name("PWR")
    1267                      .dwattr $C$DW$92, DW_AT_TI_symbol_name("_PWR")
    1268                      .dwattr $C$DW$92, DW_AT_bit_offset(0x0e)
    1269                      .dwattr $C$DW$92, DW_AT_bit_size(0x02)
    1270                      .dwattr $C$DW$92, DW_AT_data_member_location[DW_OP_plus_uconst 0x0]
    1271                      .dwattr $C$DW$92, DW_AT_accessibility(DW_ACCESS_public)
    1272              
    1273              $C$DW$93        .dwtag  DW_TAG_member
    1274                      .dwattr $C$DW$93, DW_AT_type(*$C$DW$T$19)
    1275                      .dwattr $C$DW$93, DW_AT_name("rsvd")
    1276                      .dwattr $C$DW$93, DW_AT_TI_symbol_name("_rsvd")
    1277                      .dwattr $C$DW$93, DW_AT_bit_offset(0x00)
    1278                      .dwattr $C$DW$93, DW_AT_bit_size(0x0e)
    1279                      .dwattr $C$DW$93, DW_AT_data_member_location[DW_OP_plus_uconst 0x0]
    1280                      .dwattr $C$DW$93, DW_AT_accessibility(DW_ACCESS_public)
    1281              
    1282                      .dwendtag $C$DW$T$33
    1283              
    1284              
    1285              $C$DW$T$34      .dwtag  DW_TAG_union_type
    1286                      .dwattr $C$DW$T$34, DW_AT_name("FPWR_REG")
    1287                      .dwattr $C$DW$T$34, DW_AT_byte_size(0x01)
    1288              $C$DW$94        .dwtag  DW_TAG_member
    1289                      .dwattr $C$DW$94, DW_AT_type(*$C$DW$T$19)
    1290                      .dwattr $C$DW$94, DW_AT_name("all")
    1291                      .dwattr $C$DW$94, DW_AT_TI_symbol_name("_all")
    1292                      .dwattr $C$DW$94, DW_AT_data_member_location[DW_OP_plus_uconst 0x0]
    1293                      .dwattr $C$DW$94, DW_AT_accessibility(DW_ACCESS_public)
    1294              
    1295              $C$DW$95        .dwtag  DW_TAG_member
    1296                      .dwattr $C$DW$95, DW_AT_type(*$C$DW$T$33)
TMS320C2000 Assembler PC v15.12.1 Sat Jun 25 21:32:08 2016

Tools Copyright (c) 1996-2015 Texas Instruments Incorporated
C:\Users\RJKJ_ZGH\AppData\Local\Temp\0869210                         PAGE   26

    1297                      .dwattr $C$DW$95, DW_AT_name("bit")
    1298                      .dwattr $C$DW$95, DW_AT_TI_symbol_name("_bit")
    1299                      .dwattr $C$DW$95, DW_AT_data_member_location[DW_OP_plus_uconst 0x0]
    1300                      .dwattr $C$DW$95, DW_AT_accessibility(DW_ACCESS_public)
    1301              
    1302                      .dwendtag $C$DW$T$34
    1303              
    1304              
    1305              $C$DW$T$35      .dwtag  DW_TAG_structure_type
    1306                      .dwattr $C$DW$T$35, DW_AT_name("FSTATUS_BITS")
    1307                      .dwattr $C$DW$T$35, DW_AT_byte_size(0x01)
    1308              $C$DW$96        .dwtag  DW_TAG_member
    1309                      .dwattr $C$DW$96, DW_AT_type(*$C$DW$T$19)
    1310                      .dwattr $C$DW$96, DW_AT_name("PWRS")
    1311                      .dwattr $C$DW$96, DW_AT_TI_symbol_name("_PWRS")
    1312                      .dwattr $C$DW$96, DW_AT_bit_offset(0x0e)
    1313                      .dwattr $C$DW$96, DW_AT_bit_size(0x02)
    1314                      .dwattr $C$DW$96, DW_AT_data_member_location[DW_OP_plus_uconst 0x0]
    1315                      .dwattr $C$DW$96, DW_AT_accessibility(DW_ACCESS_public)
    1316              
    1317              $C$DW$97        .dwtag  DW_TAG_member
    1318                      .dwattr $C$DW$97, DW_AT_type(*$C$DW$T$19)
    1319                      .dwattr $C$DW$97, DW_AT_name("STDBYWAITS")
    1320                      .dwattr $C$DW$97, DW_AT_TI_symbol_name("_STDBYWAITS")
    1321                      .dwattr $C$DW$97, DW_AT_bit_offset(0x0d)
    1322                      .dwattr $C$DW$97, DW_AT_bit_size(0x01)
    1323                      .dwattr $C$DW$97, DW_AT_data_member_location[DW_OP_plus_uconst 0x0]
    1324                      .dwattr $C$DW$97, DW_AT_accessibility(DW_ACCESS_public)
    1325              
    1326              $C$DW$98        .dwtag  DW_TAG_member
    1327                      .dwattr $C$DW$98, DW_AT_type(*$C$DW$T$19)
    1328                      .dwattr $C$DW$98, DW_AT_name("ACTIVEWAITS")
    1329                      .dwattr $C$DW$98, DW_AT_TI_symbol_name("_ACTIVEWAITS")
    1330                      .dwattr $C$DW$98, DW_AT_bit_offset(0x0c)
    1331                      .dwattr $C$DW$98, DW_AT_bit_size(0x01)
    1332                      .dwattr $C$DW$98, DW_AT_data_member_location[DW_OP_plus_uconst 0x0]
    1333                      .dwattr $C$DW$98, DW_AT_accessibility(DW_ACCESS_public)
    1334              
    1335              $C$DW$99        .dwtag  DW_TAG_member
    1336                      .dwattr $C$DW$99, DW_AT_type(*$C$DW$T$19)
    1337                      .dwattr $C$DW$99, DW_AT_name("rsvd1")
    1338                      .dwattr $C$DW$99, DW_AT_TI_symbol_name("_rsvd1")
    1339                      .dwattr $C$DW$99, DW_AT_bit_offset(0x08)
    1340                      .dwattr $C$DW$99, DW_AT_bit_size(0x04)
    1341                      .dwattr $C$DW$99, DW_AT_data_member_location[DW_OP_plus_uconst 0x0]
    1342                      .dwattr $C$DW$99, DW_AT_accessibility(DW_ACCESS_public)
    1343              
    1344              $C$DW$100       .dwtag  DW_TAG_member
    1345                      .dwattr $C$DW$100, DW_AT_type(*$C$DW$T$19)
    1346                      .dwattr $C$DW$100, DW_AT_name("V3STAT")
    1347                      .dwattr $C$DW$100, DW_AT_TI_symbol_name("_V3STAT")
    1348                      .dwattr $C$DW$100, DW_AT_bit_offset(0x07)
    1349                      .dwattr $C$DW$100, DW_AT_bit_size(0x01)
    1350                      .dwattr $C$DW$100, DW_AT_data_member_location[DW_OP_plus_uconst 0x0]
    1351                      .dwattr $C$DW$100, DW_AT_accessibility(DW_ACCESS_public)
TMS320C2000 Assembler PC v15.12.1 Sat Jun 25 21:32:08 2016

Tools Copyright (c) 1996-2015 Texas Instruments Incorporated
C:\Users\RJKJ_ZGH\AppData\Local\Temp\0869210                         PAGE   27

    1352              
    1353              $C$DW$101       .dwtag  DW_TAG_member
    1354                      .dwattr $C$DW$101, DW_AT_type(*$C$DW$T$19)
    1355                      .dwattr $C$DW$101, DW_AT_name("rsvd2")
    1356                      .dwattr $C$DW$101, DW_AT_TI_symbol_name("_rsvd2")
    1357                      .dwattr $C$DW$101, DW_AT_bit_offset(0x00)
    1358                      .dwattr $C$DW$101, DW_AT_bit_size(0x07)
    1359                      .dwattr $C$DW$101, DW_AT_data_member_location[DW_OP_plus_uconst 0x0]
    1360                      .dwattr $C$DW$101, DW_AT_accessibility(DW_ACCESS_public)
    1361              
    1362                      .dwendtag $C$DW$T$35
    1363              
    1364              
    1365              $C$DW$T$36      .dwtag  DW_TAG_union_type
    1366                      .dwattr $C$DW$T$36, DW_AT_name("FSTATUS_REG")
    1367                      .dwattr $C$DW$T$36, DW_AT_byte_size(0x01)
    1368              $C$DW$102       .dwtag  DW_TAG_member
    1369                      .dwattr $C$DW$102, DW_AT_type(*$C$DW$T$19)
    1370                      .dwattr $C$DW$102, DW_AT_name("all")
    1371                      .dwattr $C$DW$102, DW_AT_TI_symbol_name("_all")
    1372                      .dwattr $C$DW$102, DW_AT_data_member_location[DW_OP_plus_uconst 0x0]
    1373                      .dwattr $C$DW$102, DW_AT_accessibility(DW_ACCESS_public)
    1374              
    1375              $C$DW$103       .dwtag  DW_TAG_member
    1376                      .dwattr $C$DW$103, DW_AT_type(*$C$DW$T$35)
    1377                      .dwattr $C$DW$103, DW_AT_name("bit")
    1378                      .dwattr $C$DW$103, DW_AT_TI_symbol_name("_bit")
    1379                      .dwattr $C$DW$103, DW_AT_data_member_location[DW_OP_plus_uconst 0x0]
    1380                      .dwattr $C$DW$103, DW_AT_accessibility(DW_ACCESS_public)
    1381              
    1382                      .dwendtag $C$DW$T$36
    1383              
    1384              
    1385              $C$DW$T$37      .dwtag  DW_TAG_structure_type
    1386                      .dwattr $C$DW$T$37, DW_AT_name("FSTDBYWAIT_BITS")
    1387                      .dwattr $C$DW$T$37, DW_AT_byte_size(0x01)
    1388              $C$DW$104       .dwtag  DW_TAG_member
    1389                      .dwattr $C$DW$104, DW_AT_type(*$C$DW$T$19)
    1390                      .dwattr $C$DW$104, DW_AT_name("STDBYWAIT")
    1391                      .dwattr $C$DW$104, DW_AT_TI_symbol_name("_STDBYWAIT")
    1392                      .dwattr $C$DW$104, DW_AT_bit_offset(0x07)
    1393                      .dwattr $C$DW$104, DW_AT_bit_size(0x09)
    1394                      .dwattr $C$DW$104, DW_AT_data_member_location[DW_OP_plus_uconst 0x0]
    1395                      .dwattr $C$DW$104, DW_AT_accessibility(DW_ACCESS_public)
    1396              
    1397              $C$DW$105       .dwtag  DW_TAG_member
    1398                      .dwattr $C$DW$105, DW_AT_type(*$C$DW$T$19)
    1399                      .dwattr $C$DW$105, DW_AT_name("rsvd")
    1400                      .dwattr $C$DW$105, DW_AT_TI_symbol_name("_rsvd")
    1401                      .dwattr $C$DW$105, DW_AT_bit_offset(0x00)
    1402                      .dwattr $C$DW$105, DW_AT_bit_size(0x07)
    1403                      .dwattr $C$DW$105, DW_AT_data_member_location[DW_OP_plus_uconst 0x0]
    1404                      .dwattr $C$DW$105, DW_AT_accessibility(DW_ACCESS_public)
    1405              
    1406                      .dwendtag $C$DW$T$37
TMS320C2000 Assembler PC v15.12.1 Sat Jun 25 21:32:08 2016

Tools Copyright (c) 1996-2015 Texas Instruments Incorporated
C:\Users\RJKJ_ZGH\AppData\Local\Temp\0869210                         PAGE   28

    1407              
    1408              
    1409              $C$DW$T$38      .dwtag  DW_TAG_union_type
    1410                      .dwattr $C$DW$T$38, DW_AT_name("FSTDBYWAIT_REG")
    1411                      .dwattr $C$DW$T$38, DW_AT_byte_size(0x01)
    1412              $C$DW$106       .dwtag  DW_TAG_member
    1413                      .dwattr $C$DW$106, DW_AT_type(*$C$DW$T$19)
    1414                      .dwattr $C$DW$106, DW_AT_name("all")
    1415                      .dwattr $C$DW$106, DW_AT_TI_symbol_name("_all")
    1416                      .dwattr $C$DW$106, DW_AT_data_member_location[DW_OP_plus_uconst 0x0]
    1417                      .dwattr $C$DW$106, DW_AT_accessibility(DW_ACCESS_public)
    1418              
    1419              $C$DW$107       .dwtag  DW_TAG_member
    1420                      .dwattr $C$DW$107, DW_AT_type(*$C$DW$T$37)
    1421                      .dwattr $C$DW$107, DW_AT_name("bit")
    1422                      .dwattr $C$DW$107, DW_AT_TI_symbol_name("_bit")
    1423                      .dwattr $C$DW$107, DW_AT_data_member_location[DW_OP_plus_uconst 0x0]
    1424                      .dwattr $C$DW$107, DW_AT_accessibility(DW_ACCESS_public)
    1425              
    1426                      .dwendtag $C$DW$T$38
    1427              
    1428              
    1429              $C$DW$T$39      .dwtag  DW_TAG_structure_type
    1430                      .dwattr $C$DW$T$39, DW_AT_name("HISPCP_BITS")
    1431                      .dwattr $C$DW$T$39, DW_AT_byte_size(0x01)
    1432              $C$DW$108       .dwtag  DW_TAG_member
    1433                      .dwattr $C$DW$108, DW_AT_type(*$C$DW$T$19)
    1434                      .dwattr $C$DW$108, DW_AT_name("HSPCLK")
    1435                      .dwattr $C$DW$108, DW_AT_TI_symbol_name("_HSPCLK")
    1436                      .dwattr $C$DW$108, DW_AT_bit_offset(0x0d)
    1437                      .dwattr $C$DW$108, DW_AT_bit_size(0x03)
    1438                      .dwattr $C$DW$108, DW_AT_data_member_location[DW_OP_plus_uconst 0x0]
    1439                      .dwattr $C$DW$108, DW_AT_accessibility(DW_ACCESS_public)
    1440              
    1441              $C$DW$109       .dwtag  DW_TAG_member
    1442                      .dwattr $C$DW$109, DW_AT_type(*$C$DW$T$19)
    1443                      .dwattr $C$DW$109, DW_AT_name("rsvd1")
    1444                      .dwattr $C$DW$109, DW_AT_TI_symbol_name("_rsvd1")
    1445                      .dwattr $C$DW$109, DW_AT_bit_offset(0x00)
    1446                      .dwattr $C$DW$109, DW_AT_bit_size(0x0d)
    1447                      .dwattr $C$DW$109, DW_AT_data_member_location[DW_OP_plus_uconst 0x0]
    1448                      .dwattr $C$DW$109, DW_AT_accessibility(DW_ACCESS_public)
    1449              
    1450                      .dwendtag $C$DW$T$39
    1451              
    1452              
    1453              $C$DW$T$40      .dwtag  DW_TAG_union_type
    1454                      .dwattr $C$DW$T$40, DW_AT_name("HISPCP_REG")
    1455                      .dwattr $C$DW$T$40, DW_AT_byte_size(0x01)
    1456              $C$DW$110       .dwtag  DW_TAG_member
    1457                      .dwattr $C$DW$110, DW_AT_type(*$C$DW$T$19)
    1458                      .dwattr $C$DW$110, DW_AT_name("all")
    1459                      .dwattr $C$DW$110, DW_AT_TI_symbol_name("_all")
    1460                      .dwattr $C$DW$110, DW_AT_data_member_location[DW_OP_plus_uconst 0x0]
    1461                      .dwattr $C$DW$110, DW_AT_accessibility(DW_ACCESS_public)
TMS320C2000 Assembler PC v15.12.1 Sat Jun 25 21:32:08 2016

Tools Copyright (c) 1996-2015 Texas Instruments Incorporated
C:\Users\RJKJ_ZGH\AppData\Local\Temp\0869210                         PAGE   29

    1462              
    1463              $C$DW$111       .dwtag  DW_TAG_member
    1464                      .dwattr $C$DW$111, DW_AT_type(*$C$DW$T$39)
    1465                      .dwattr $C$DW$111, DW_AT_name("bit")
    1466                      .dwattr $C$DW$111, DW_AT_TI_symbol_name("_bit")
    1467                      .dwattr $C$DW$111, DW_AT_data_member_location[DW_OP_plus_uconst 0x0]
    1468                      .dwattr $C$DW$111, DW_AT_accessibility(DW_ACCESS_public)
    1469              
    1470                      .dwendtag $C$DW$T$40
    1471              
    1472              
    1473              $C$DW$T$41      .dwtag  DW_TAG_structure_type
    1474                      .dwattr $C$DW$T$41, DW_AT_name("LOSPCP_BITS")
    1475                      .dwattr $C$DW$T$41, DW_AT_byte_size(0x01)
    1476              $C$DW$112       .dwtag  DW_TAG_member
    1477                      .dwattr $C$DW$112, DW_AT_type(*$C$DW$T$19)
    1478                      .dwattr $C$DW$112, DW_AT_name("LSPCLK")
    1479                      .dwattr $C$DW$112, DW_AT_TI_symbol_name("_LSPCLK")
    1480                      .dwattr $C$DW$112, DW_AT_bit_offset(0x0d)
    1481                      .dwattr $C$DW$112, DW_AT_bit_size(0x03)
    1482                      .dwattr $C$DW$112, DW_AT_data_member_location[DW_OP_plus_uconst 0x0]
    1483                      .dwattr $C$DW$112, DW_AT_accessibility(DW_ACCESS_public)
    1484              
    1485              $C$DW$113       .dwtag  DW_TAG_member
    1486                      .dwattr $C$DW$113, DW_AT_type(*$C$DW$T$19)
    1487                      .dwattr $C$DW$113, DW_AT_name("rsvd1")
    1488                      .dwattr $C$DW$113, DW_AT_TI_symbol_name("_rsvd1")
    1489                      .dwattr $C$DW$113, DW_AT_bit_offset(0x00)
    1490                      .dwattr $C$DW$113, DW_AT_bit_size(0x0d)
    1491                      .dwattr $C$DW$113, DW_AT_data_member_location[DW_OP_plus_uconst 0x0]
    1492                      .dwattr $C$DW$113, DW_AT_accessibility(DW_ACCESS_public)
    1493              
    1494                      .dwendtag $C$DW$T$41
    1495              
    1496              
    1497              $C$DW$T$42      .dwtag  DW_TAG_union_type
    1498                      .dwattr $C$DW$T$42, DW_AT_name("LOSPCP_REG")
    1499                      .dwattr $C$DW$T$42, DW_AT_byte_size(0x01)
    1500              $C$DW$114       .dwtag  DW_TAG_member
    1501                      .dwattr $C$DW$114, DW_AT_type(*$C$DW$T$19)
    1502                      .dwattr $C$DW$114, DW_AT_name("all")
    1503                      .dwattr $C$DW$114, DW_AT_TI_symbol_name("_all")
    1504                      .dwattr $C$DW$114, DW_AT_data_member_location[DW_OP_plus_uconst 0x0]
    1505                      .dwattr $C$DW$114, DW_AT_accessibility(DW_ACCESS_public)
    1506              
    1507              $C$DW$115       .dwtag  DW_TAG_member
    1508                      .dwattr $C$DW$115, DW_AT_type(*$C$DW$T$41)
    1509                      .dwattr $C$DW$115, DW_AT_name("bit")
    1510                      .dwattr $C$DW$115, DW_AT_TI_symbol_name("_bit")
    1511                      .dwattr $C$DW$115, DW_AT_data_member_location[DW_OP_plus_uconst 0x0]
    1512                      .dwattr $C$DW$115, DW_AT_accessibility(DW_ACCESS_public)
    1513              
    1514                      .dwendtag $C$DW$T$42
    1515              
    1516              
TMS320C2000 Assembler PC v15.12.1 Sat Jun 25 21:32:08 2016

Tools Copyright (c) 1996-2015 Texas Instruments Incorporated
C:\Users\RJKJ_ZGH\AppData\Local\Temp\0869210                         PAGE   30

    1517              $C$DW$T$43      .dwtag  DW_TAG_structure_type
    1518                      .dwattr $C$DW$T$43, DW_AT_name("LPMCR0_BITS")
    1519                      .dwattr $C$DW$T$43, DW_AT_byte_size(0x01)
    1520              $C$DW$116       .dwtag  DW_TAG_member
    1521                      .dwattr $C$DW$116, DW_AT_type(*$C$DW$T$19)
    1522                      .dwattr $C$DW$116, DW_AT_name("LPM")
    1523                      .dwattr $C$DW$116, DW_AT_TI_symbol_name("_LPM")
    1524                      .dwattr $C$DW$116, DW_AT_bit_offset(0x0e)
    1525                      .dwattr $C$DW$116, DW_AT_bit_size(0x02)
    1526                      .dwattr $C$DW$116, DW_AT_data_member_location[DW_OP_plus_uconst 0x0]
    1527                      .dwattr $C$DW$116, DW_AT_accessibility(DW_ACCESS_public)
    1528              
    1529              $C$DW$117       .dwtag  DW_TAG_member
    1530                      .dwattr $C$DW$117, DW_AT_type(*$C$DW$T$19)
    1531                      .dwattr $C$DW$117, DW_AT_name("QUALSTDBY")
    1532                      .dwattr $C$DW$117, DW_AT_TI_symbol_name("_QUALSTDBY")
    1533                      .dwattr $C$DW$117, DW_AT_bit_offset(0x08)
    1534                      .dwattr $C$DW$117, DW_AT_bit_size(0x06)
    1535                      .dwattr $C$DW$117, DW_AT_data_member_location[DW_OP_plus_uconst 0x0]
    1536                      .dwattr $C$DW$117, DW_AT_accessibility(DW_ACCESS_public)
    1537              
    1538              $C$DW$118       .dwtag  DW_TAG_member
    1539                      .dwattr $C$DW$118, DW_AT_type(*$C$DW$T$19)
    1540                      .dwattr $C$DW$118, DW_AT_name("rsvd1")
    1541                      .dwattr $C$DW$118, DW_AT_TI_symbol_name("_rsvd1")
    1542                      .dwattr $C$DW$118, DW_AT_bit_offset(0x01)
    1543                      .dwattr $C$DW$118, DW_AT_bit_size(0x07)
    1544                      .dwattr $C$DW$118, DW_AT_data_member_location[DW_OP_plus_uconst 0x0]
    1545                      .dwattr $C$DW$118, DW_AT_accessibility(DW_ACCESS_public)
    1546              
    1547              $C$DW$119       .dwtag  DW_TAG_member
    1548                      .dwattr $C$DW$119, DW_AT_type(*$C$DW$T$19)
    1549                      .dwattr $C$DW$119, DW_AT_name("WDINTE")
    1550                      .dwattr $C$DW$119, DW_AT_TI_symbol_name("_WDINTE")
    1551                      .dwattr $C$DW$119, DW_AT_bit_offset(0x00)
    1552                      .dwattr $C$DW$119, DW_AT_bit_size(0x01)
    1553                      .dwattr $C$DW$119, DW_AT_data_member_location[DW_OP_plus_uconst 0x0]
    1554                      .dwattr $C$DW$119, DW_AT_accessibility(DW_ACCESS_public)
    1555              
    1556                      .dwendtag $C$DW$T$43
    1557              
    1558              
    1559              $C$DW$T$44      .dwtag  DW_TAG_union_type
    1560                      .dwattr $C$DW$T$44, DW_AT_name("LPMCR0_REG")
    1561                      .dwattr $C$DW$T$44, DW_AT_byte_size(0x01)
    1562              $C$DW$120       .dwtag  DW_TAG_member
    1563                      .dwattr $C$DW$120, DW_AT_type(*$C$DW$T$19)
    1564                      .dwattr $C$DW$120, DW_AT_name("all")
    1565                      .dwattr $C$DW$120, DW_AT_TI_symbol_name("_all")
    1566                      .dwattr $C$DW$120, DW_AT_data_member_location[DW_OP_plus_uconst 0x0]
    1567                      .dwattr $C$DW$120, DW_AT_accessibility(DW_ACCESS_public)
    1568              
    1569              $C$DW$121       .dwtag  DW_TAG_member
    1570                      .dwattr $C$DW$121, DW_AT_type(*$C$DW$T$43)
    1571                      .dwattr $C$DW$121, DW_AT_name("bit")
TMS320C2000 Assembler PC v15.12.1 Sat Jun 25 21:32:08 2016

Tools Copyright (c) 1996-2015 Texas Instruments Incorporated
C:\Users\RJKJ_ZGH\AppData\Local\Temp\0869210                         PAGE   31

    1572                      .dwattr $C$DW$121, DW_AT_TI_symbol_name("_bit")
    1573                      .dwattr $C$DW$121, DW_AT_data_member_location[DW_OP_plus_uconst 0x0]
    1574                      .dwattr $C$DW$121, DW_AT_accessibility(DW_ACCESS_public)
    1575              
    1576                      .dwendtag $C$DW$T$44
    1577              
    1578              
    1579              $C$DW$T$45      .dwtag  DW_TAG_structure_type
    1580                      .dwattr $C$DW$T$45, DW_AT_name("MAPCNF_BITS")
    1581                      .dwattr $C$DW$T$45, DW_AT_byte_size(0x01)
    1582              $C$DW$122       .dwtag  DW_TAG_member
    1583                      .dwattr $C$DW$122, DW_AT_type(*$C$DW$T$19)
    1584                      .dwattr $C$DW$122, DW_AT_name("MAPEPWM")
    1585                      .dwattr $C$DW$122, DW_AT_TI_symbol_name("_MAPEPWM")
    1586                      .dwattr $C$DW$122, DW_AT_bit_offset(0x0f)
    1587                      .dwattr $C$DW$122, DW_AT_bit_size(0x01)
    1588                      .dwattr $C$DW$122, DW_AT_data_member_location[DW_OP_plus_uconst 0x0]
    1589                      .dwattr $C$DW$122, DW_AT_accessibility(DW_ACCESS_public)
    1590              
    1591              $C$DW$123       .dwtag  DW_TAG_member
    1592                      .dwattr $C$DW$123, DW_AT_type(*$C$DW$T$19)
    1593                      .dwattr $C$DW$123, DW_AT_name("rsvd1")
    1594                      .dwattr $C$DW$123, DW_AT_TI_symbol_name("_rsvd1")
    1595                      .dwattr $C$DW$123, DW_AT_bit_offset(0x00)
    1596                      .dwattr $C$DW$123, DW_AT_bit_size(0x0f)
    1597                      .dwattr $C$DW$123, DW_AT_data_member_location[DW_OP_plus_uconst 0x0]
    1598                      .dwattr $C$DW$123, DW_AT_accessibility(DW_ACCESS_public)
    1599              
    1600                      .dwendtag $C$DW$T$45
    1601              
    1602              
    1603              $C$DW$T$46      .dwtag  DW_TAG_union_type
    1604                      .dwattr $C$DW$T$46, DW_AT_name("MAPCNF_REG")
    1605                      .dwattr $C$DW$T$46, DW_AT_byte_size(0x01)
    1606              $C$DW$124       .dwtag  DW_TAG_member
    1607                      .dwattr $C$DW$124, DW_AT_type(*$C$DW$T$19)
    1608                      .dwattr $C$DW$124, DW_AT_name("all")
    1609                      .dwattr $C$DW$124, DW_AT_TI_symbol_name("_all")
    1610                      .dwattr $C$DW$124, DW_AT_data_member_location[DW_OP_plus_uconst 0x0]
    1611                      .dwattr $C$DW$124, DW_AT_accessibility(DW_ACCESS_public)
    1612              
    1613              $C$DW$125       .dwtag  DW_TAG_member
    1614                      .dwattr $C$DW$125, DW_AT_type(*$C$DW$T$45)
    1615                      .dwattr $C$DW$125, DW_AT_name("bit")
    1616                      .dwattr $C$DW$125, DW_AT_TI_symbol_name("_bit")
    1617                      .dwattr $C$DW$125, DW_AT_data_member_location[DW_OP_plus_uconst 0x0]
    1618                      .dwattr $C$DW$125, DW_AT_accessibility(DW_ACCESS_public)
    1619              
    1620                      .dwendtag $C$DW$T$46
    1621              
    1622              
    1623              $C$DW$T$47      .dwtag  DW_TAG_structure_type
    1624                      .dwattr $C$DW$T$47, DW_AT_name("PCLKCR0_BITS")
    1625                      .dwattr $C$DW$T$47, DW_AT_byte_size(0x01)
    1626              $C$DW$126       .dwtag  DW_TAG_member
TMS320C2000 Assembler PC v15.12.1 Sat Jun 25 21:32:08 2016

Tools Copyright (c) 1996-2015 Texas Instruments Incorporated
C:\Users\RJKJ_ZGH\AppData\Local\Temp\0869210                         PAGE   32

    1627                      .dwattr $C$DW$126, DW_AT_type(*$C$DW$T$19)
    1628                      .dwattr $C$DW$126, DW_AT_name("rsvd1")
    1629                      .dwattr $C$DW$126, DW_AT_TI_symbol_name("_rsvd1")
    1630                      .dwattr $C$DW$126, DW_AT_bit_offset(0x0e)
    1631                      .dwattr $C$DW$126, DW_AT_bit_size(0x02)
    1632                      .dwattr $C$DW$126, DW_AT_data_member_location[DW_OP_plus_uconst 0x0]
    1633                      .dwattr $C$DW$126, DW_AT_accessibility(DW_ACCESS_public)
    1634              
    1635              $C$DW$127       .dwtag  DW_TAG_member
    1636                      .dwattr $C$DW$127, DW_AT_type(*$C$DW$T$19)
    1637                      .dwattr $C$DW$127, DW_AT_name("TBCLKSYNC")
    1638                      .dwattr $C$DW$127, DW_AT_TI_symbol_name("_TBCLKSYNC")
    1639                      .dwattr $C$DW$127, DW_AT_bit_offset(0x0d)
    1640                      .dwattr $C$DW$127, DW_AT_bit_size(0x01)
    1641                      .dwattr $C$DW$127, DW_AT_data_member_location[DW_OP_plus_uconst 0x0]
    1642                      .dwattr $C$DW$127, DW_AT_accessibility(DW_ACCESS_public)
    1643              
    1644              $C$DW$128       .dwtag  DW_TAG_member
    1645                      .dwattr $C$DW$128, DW_AT_type(*$C$DW$T$19)
    1646                      .dwattr $C$DW$128, DW_AT_name("ADCENCLK")
    1647                      .dwattr $C$DW$128, DW_AT_TI_symbol_name("_ADCENCLK")
    1648                      .dwattr $C$DW$128, DW_AT_bit_offset(0x0c)
    1649                      .dwattr $C$DW$128, DW_AT_bit_size(0x01)
    1650                      .dwattr $C$DW$128, DW_AT_data_member_location[DW_OP_plus_uconst 0x0]
    1651                      .dwattr $C$DW$128, DW_AT_accessibility(DW_ACCESS_public)
    1652              
    1653              $C$DW$129       .dwtag  DW_TAG_member
    1654                      .dwattr $C$DW$129, DW_AT_type(*$C$DW$T$19)
    1655                      .dwattr $C$DW$129, DW_AT_name("I2CAENCLK")
    1656                      .dwattr $C$DW$129, DW_AT_TI_symbol_name("_I2CAENCLK")
    1657                      .dwattr $C$DW$129, DW_AT_bit_offset(0x0b)
    1658                      .dwattr $C$DW$129, DW_AT_bit_size(0x01)
    1659                      .dwattr $C$DW$129, DW_AT_data_member_location[DW_OP_plus_uconst 0x0]
    1660                      .dwattr $C$DW$129, DW_AT_accessibility(DW_ACCESS_public)
    1661              
    1662              $C$DW$130       .dwtag  DW_TAG_member
    1663                      .dwattr $C$DW$130, DW_AT_type(*$C$DW$T$19)
    1664                      .dwattr $C$DW$130, DW_AT_name("SCICENCLK")
    1665                      .dwattr $C$DW$130, DW_AT_TI_symbol_name("_SCICENCLK")
    1666                      .dwattr $C$DW$130, DW_AT_bit_offset(0x0a)
    1667                      .dwattr $C$DW$130, DW_AT_bit_size(0x01)
    1668                      .dwattr $C$DW$130, DW_AT_data_member_location[DW_OP_plus_uconst 0x0]
    1669                      .dwattr $C$DW$130, DW_AT_accessibility(DW_ACCESS_public)
    1670              
    1671              $C$DW$131       .dwtag  DW_TAG_member
    1672                      .dwattr $C$DW$131, DW_AT_type(*$C$DW$T$19)
    1673                      .dwattr $C$DW$131, DW_AT_name("rsvd2")
    1674                      .dwattr $C$DW$131, DW_AT_TI_symbol_name("_rsvd2")
    1675                      .dwattr $C$DW$131, DW_AT_bit_offset(0x08)
    1676                      .dwattr $C$DW$131, DW_AT_bit_size(0x02)
    1677                      .dwattr $C$DW$131, DW_AT_data_member_location[DW_OP_plus_uconst 0x0]
    1678                      .dwattr $C$DW$131, DW_AT_accessibility(DW_ACCESS_public)
    1679              
    1680              $C$DW$132       .dwtag  DW_TAG_member
    1681                      .dwattr $C$DW$132, DW_AT_type(*$C$DW$T$19)
TMS320C2000 Assembler PC v15.12.1 Sat Jun 25 21:32:08 2016

Tools Copyright (c) 1996-2015 Texas Instruments Incorporated
C:\Users\RJKJ_ZGH\AppData\Local\Temp\0869210                         PAGE   33

    1682                      .dwattr $C$DW$132, DW_AT_name("SPIAENCLK")
    1683                      .dwattr $C$DW$132, DW_AT_TI_symbol_name("_SPIAENCLK")
    1684                      .dwattr $C$DW$132, DW_AT_bit_offset(0x07)
    1685                      .dwattr $C$DW$132, DW_AT_bit_size(0x01)
    1686                      .dwattr $C$DW$132, DW_AT_data_member_location[DW_OP_plus_uconst 0x0]
    1687                      .dwattr $C$DW$132, DW_AT_accessibility(DW_ACCESS_public)
    1688              
    1689              $C$DW$133       .dwtag  DW_TAG_member
    1690                      .dwattr $C$DW$133, DW_AT_type(*$C$DW$T$19)
    1691                      .dwattr $C$DW$133, DW_AT_name("rsvd3")
    1692                      .dwattr $C$DW$133, DW_AT_TI_symbol_name("_rsvd3")
    1693                      .dwattr $C$DW$133, DW_AT_bit_offset(0x06)
    1694                      .dwattr $C$DW$133, DW_AT_bit_size(0x01)
    1695                      .dwattr $C$DW$133, DW_AT_data_member_location[DW_OP_plus_uconst 0x0]
    1696                      .dwattr $C$DW$133, DW_AT_accessibility(DW_ACCESS_public)
    1697              
    1698              $C$DW$134       .dwtag  DW_TAG_member
    1699                      .dwattr $C$DW$134, DW_AT_type(*$C$DW$T$19)
    1700                      .dwattr $C$DW$134, DW_AT_name("SCIAENCLK")
    1701                      .dwattr $C$DW$134, DW_AT_TI_symbol_name("_SCIAENCLK")
    1702                      .dwattr $C$DW$134, DW_AT_bit_offset(0x05)
    1703                      .dwattr $C$DW$134, DW_AT_bit_size(0x01)
    1704                      .dwattr $C$DW$134, DW_AT_data_member_location[DW_OP_plus_uconst 0x0]
    1705                      .dwattr $C$DW$134, DW_AT_accessibility(DW_ACCESS_public)
    1706              
    1707              $C$DW$135       .dwtag  DW_TAG_member
    1708                      .dwattr $C$DW$135, DW_AT_type(*$C$DW$T$19)
    1709                      .dwattr $C$DW$135, DW_AT_name("SCIBENCLK")
    1710                      .dwattr $C$DW$135, DW_AT_TI_symbol_name("_SCIBENCLK")
    1711                      .dwattr $C$DW$135, DW_AT_bit_offset(0x04)
    1712                      .dwattr $C$DW$135, DW_AT_bit_size(0x01)
    1713                      .dwattr $C$DW$135, DW_AT_data_member_location[DW_OP_plus_uconst 0x0]
    1714                      .dwattr $C$DW$135, DW_AT_accessibility(DW_ACCESS_public)
    1715              
    1716              $C$DW$136       .dwtag  DW_TAG_member
    1717                      .dwattr $C$DW$136, DW_AT_type(*$C$DW$T$19)
    1718                      .dwattr $C$DW$136, DW_AT_name("MCBSPAENCLK")
    1719                      .dwattr $C$DW$136, DW_AT_TI_symbol_name("_MCBSPAENCLK")
    1720                      .dwattr $C$DW$136, DW_AT_bit_offset(0x03)
    1721                      .dwattr $C$DW$136, DW_AT_bit_size(0x01)
    1722                      .dwattr $C$DW$136, DW_AT_data_member_location[DW_OP_plus_uconst 0x0]
    1723                      .dwattr $C$DW$136, DW_AT_accessibility(DW_ACCESS_public)
    1724              
    1725              $C$DW$137       .dwtag  DW_TAG_member
    1726                      .dwattr $C$DW$137, DW_AT_type(*$C$DW$T$19)
    1727                      .dwattr $C$DW$137, DW_AT_name("MCBSPBENCLK")
    1728                      .dwattr $C$DW$137, DW_AT_TI_symbol_name("_MCBSPBENCLK")
    1729                      .dwattr $C$DW$137, DW_AT_bit_offset(0x02)
    1730                      .dwattr $C$DW$137, DW_AT_bit_size(0x01)
    1731                      .dwattr $C$DW$137, DW_AT_data_member_location[DW_OP_plus_uconst 0x0]
    1732                      .dwattr $C$DW$137, DW_AT_accessibility(DW_ACCESS_public)
    1733              
    1734              $C$DW$138       .dwtag  DW_TAG_member
    1735                      .dwattr $C$DW$138, DW_AT_type(*$C$DW$T$19)
    1736                      .dwattr $C$DW$138, DW_AT_name("ECANAENCLK")
TMS320C2000 Assembler PC v15.12.1 Sat Jun 25 21:32:08 2016

Tools Copyright (c) 1996-2015 Texas Instruments Incorporated
C:\Users\RJKJ_ZGH\AppData\Local\Temp\0869210                         PAGE   34

    1737                      .dwattr $C$DW$138, DW_AT_TI_symbol_name("_ECANAENCLK")
    1738                      .dwattr $C$DW$138, DW_AT_bit_offset(0x01)
    1739                      .dwattr $C$DW$138, DW_AT_bit_size(0x01)
    1740                      .dwattr $C$DW$138, DW_AT_data_member_location[DW_OP_plus_uconst 0x0]
    1741                      .dwattr $C$DW$138, DW_AT_accessibility(DW_ACCESS_public)
    1742              
    1743              $C$DW$139       .dwtag  DW_TAG_member
    1744                      .dwattr $C$DW$139, DW_AT_type(*$C$DW$T$19)
    1745                      .dwattr $C$DW$139, DW_AT_name("ECANBENCLK")
    1746                      .dwattr $C$DW$139, DW_AT_TI_symbol_name("_ECANBENCLK")
    1747                      .dwattr $C$DW$139, DW_AT_bit_offset(0x00)
    1748                      .dwattr $C$DW$139, DW_AT_bit_size(0x01)
    1749                      .dwattr $C$DW$139, DW_AT_data_member_location[DW_OP_plus_uconst 0x0]
    1750                      .dwattr $C$DW$139, DW_AT_accessibility(DW_ACCESS_public)
    1751              
    1752                      .dwendtag $C$DW$T$47
    1753              
    1754              
    1755              $C$DW$T$48      .dwtag  DW_TAG_union_type
    1756                      .dwattr $C$DW$T$48, DW_AT_name("PCLKCR0_REG")
    1757                      .dwattr $C$DW$T$48, DW_AT_byte_size(0x01)
    1758              $C$DW$140       .dwtag  DW_TAG_member
    1759                      .dwattr $C$DW$140, DW_AT_type(*$C$DW$T$19)
    1760                      .dwattr $C$DW$140, DW_AT_name("all")
    1761                      .dwattr $C$DW$140, DW_AT_TI_symbol_name("_all")
    1762                      .dwattr $C$DW$140, DW_AT_data_member_location[DW_OP_plus_uconst 0x0]
    1763                      .dwattr $C$DW$140, DW_AT_accessibility(DW_ACCESS_public)
    1764              
    1765              $C$DW$141       .dwtag  DW_TAG_member
    1766                      .dwattr $C$DW$141, DW_AT_type(*$C$DW$T$47)
    1767                      .dwattr $C$DW$141, DW_AT_name("bit")
    1768                      .dwattr $C$DW$141, DW_AT_TI_symbol_name("_bit")
    1769                      .dwattr $C$DW$141, DW_AT_data_member_location[DW_OP_plus_uconst 0x0]
    1770                      .dwattr $C$DW$141, DW_AT_accessibility(DW_ACCESS_public)
    1771              
    1772                      .dwendtag $C$DW$T$48
    1773              
    1774              
    1775              $C$DW$T$49      .dwtag  DW_TAG_structure_type
    1776                      .dwattr $C$DW$T$49, DW_AT_name("PCLKCR1_BITS")
    1777                      .dwattr $C$DW$T$49, DW_AT_byte_size(0x01)
    1778              $C$DW$142       .dwtag  DW_TAG_member
    1779                      .dwattr $C$DW$142, DW_AT_type(*$C$DW$T$19)
    1780                      .dwattr $C$DW$142, DW_AT_name("EPWM1ENCLK")
    1781                      .dwattr $C$DW$142, DW_AT_TI_symbol_name("_EPWM1ENCLK")
    1782                      .dwattr $C$DW$142, DW_AT_bit_offset(0x0f)
    1783                      .dwattr $C$DW$142, DW_AT_bit_size(0x01)
    1784                      .dwattr $C$DW$142, DW_AT_data_member_location[DW_OP_plus_uconst 0x0]
    1785                      .dwattr $C$DW$142, DW_AT_accessibility(DW_ACCESS_public)
    1786              
    1787              $C$DW$143       .dwtag  DW_TAG_member
    1788                      .dwattr $C$DW$143, DW_AT_type(*$C$DW$T$19)
    1789                      .dwattr $C$DW$143, DW_AT_name("EPWM2ENCLK")
    1790                      .dwattr $C$DW$143, DW_AT_TI_symbol_name("_EPWM2ENCLK")
    1791                      .dwattr $C$DW$143, DW_AT_bit_offset(0x0e)
TMS320C2000 Assembler PC v15.12.1 Sat Jun 25 21:32:08 2016

Tools Copyright (c) 1996-2015 Texas Instruments Incorporated
C:\Users\RJKJ_ZGH\AppData\Local\Temp\0869210                         PAGE   35

    1792                      .dwattr $C$DW$143, DW_AT_bit_size(0x01)
    1793                      .dwattr $C$DW$143, DW_AT_data_member_location[DW_OP_plus_uconst 0x0]
    1794                      .dwattr $C$DW$143, DW_AT_accessibility(DW_ACCESS_public)
    1795              
    1796              $C$DW$144       .dwtag  DW_TAG_member
    1797                      .dwattr $C$DW$144, DW_AT_type(*$C$DW$T$19)
    1798                      .dwattr $C$DW$144, DW_AT_name("EPWM3ENCLK")
    1799                      .dwattr $C$DW$144, DW_AT_TI_symbol_name("_EPWM3ENCLK")
    1800                      .dwattr $C$DW$144, DW_AT_bit_offset(0x0d)
    1801                      .dwattr $C$DW$144, DW_AT_bit_size(0x01)
    1802                      .dwattr $C$DW$144, DW_AT_data_member_location[DW_OP_plus_uconst 0x0]
    1803                      .dwattr $C$DW$144, DW_AT_accessibility(DW_ACCESS_public)
    1804              
    1805              $C$DW$145       .dwtag  DW_TAG_member
    1806                      .dwattr $C$DW$145, DW_AT_type(*$C$DW$T$19)
    1807                      .dwattr $C$DW$145, DW_AT_name("EPWM4ENCLK")
    1808                      .dwattr $C$DW$145, DW_AT_TI_symbol_name("_EPWM4ENCLK")
    1809                      .dwattr $C$DW$145, DW_AT_bit_offset(0x0c)
    1810                      .dwattr $C$DW$145, DW_AT_bit_size(0x01)
    1811                      .dwattr $C$DW$145, DW_AT_data_member_location[DW_OP_plus_uconst 0x0]
    1812                      .dwattr $C$DW$145, DW_AT_accessibility(DW_ACCESS_public)
    1813              
    1814              $C$DW$146       .dwtag  DW_TAG_member
    1815                      .dwattr $C$DW$146, DW_AT_type(*$C$DW$T$19)
    1816                      .dwattr $C$DW$146, DW_AT_name("EPWM5ENCLK")
    1817                      .dwattr $C$DW$146, DW_AT_TI_symbol_name("_EPWM5ENCLK")
    1818                      .dwattr $C$DW$146, DW_AT_bit_offset(0x0b)
    1819                      .dwattr $C$DW$146, DW_AT_bit_size(0x01)
    1820                      .dwattr $C$DW$146, DW_AT_data_member_location[DW_OP_plus_uconst 0x0]
    1821                      .dwattr $C$DW$146, DW_AT_accessibility(DW_ACCESS_public)
    1822              
    1823              $C$DW$147       .dwtag  DW_TAG_member
    1824                      .dwattr $C$DW$147, DW_AT_type(*$C$DW$T$19)
    1825                      .dwattr $C$DW$147, DW_AT_name("EPWM6ENCLK")
    1826                      .dwattr $C$DW$147, DW_AT_TI_symbol_name("_EPWM6ENCLK")
    1827                      .dwattr $C$DW$147, DW_AT_bit_offset(0x0a)
    1828                      .dwattr $C$DW$147, DW_AT_bit_size(0x01)
    1829                      .dwattr $C$DW$147, DW_AT_data_member_location[DW_OP_plus_uconst 0x0]
    1830                      .dwattr $C$DW$147, DW_AT_accessibility(DW_ACCESS_public)
    1831              
    1832              $C$DW$148       .dwtag  DW_TAG_member
    1833                      .dwattr $C$DW$148, DW_AT_type(*$C$DW$T$19)
    1834                      .dwattr $C$DW$148, DW_AT_name("rsvd1")
    1835                      .dwattr $C$DW$148, DW_AT_TI_symbol_name("_rsvd1")
    1836                      .dwattr $C$DW$148, DW_AT_bit_offset(0x08)
    1837                      .dwattr $C$DW$148, DW_AT_bit_size(0x02)
    1838                      .dwattr $C$DW$148, DW_AT_data_member_location[DW_OP_plus_uconst 0x0]
    1839                      .dwattr $C$DW$148, DW_AT_accessibility(DW_ACCESS_public)
    1840              
    1841              $C$DW$149       .dwtag  DW_TAG_member
    1842                      .dwattr $C$DW$149, DW_AT_type(*$C$DW$T$19)
    1843                      .dwattr $C$DW$149, DW_AT_name("ECAP1ENCLK")
    1844                      .dwattr $C$DW$149, DW_AT_TI_symbol_name("_ECAP1ENCLK")
    1845                      .dwattr $C$DW$149, DW_AT_bit_offset(0x07)
    1846                      .dwattr $C$DW$149, DW_AT_bit_size(0x01)
TMS320C2000 Assembler PC v15.12.1 Sat Jun 25 21:32:08 2016

Tools Copyright (c) 1996-2015 Texas Instruments Incorporated
C:\Users\RJKJ_ZGH\AppData\Local\Temp\0869210                         PAGE   36

    1847                      .dwattr $C$DW$149, DW_AT_data_member_location[DW_OP_plus_uconst 0x0]
    1848                      .dwattr $C$DW$149, DW_AT_accessibility(DW_ACCESS_public)
    1849              
    1850              $C$DW$150       .dwtag  DW_TAG_member
    1851                      .dwattr $C$DW$150, DW_AT_type(*$C$DW$T$19)
    1852                      .dwattr $C$DW$150, DW_AT_name("ECAP2ENCLK")
    1853                      .dwattr $C$DW$150, DW_AT_TI_symbol_name("_ECAP2ENCLK")
    1854                      .dwattr $C$DW$150, DW_AT_bit_offset(0x06)
    1855                      .dwattr $C$DW$150, DW_AT_bit_size(0x01)
    1856                      .dwattr $C$DW$150, DW_AT_data_member_location[DW_OP_plus_uconst 0x0]
    1857                      .dwattr $C$DW$150, DW_AT_accessibility(DW_ACCESS_public)
    1858              
    1859              $C$DW$151       .dwtag  DW_TAG_member
    1860                      .dwattr $C$DW$151, DW_AT_type(*$C$DW$T$19)
    1861                      .dwattr $C$DW$151, DW_AT_name("ECAP3ENCLK")
    1862                      .dwattr $C$DW$151, DW_AT_TI_symbol_name("_ECAP3ENCLK")
    1863                      .dwattr $C$DW$151, DW_AT_bit_offset(0x05)
    1864                      .dwattr $C$DW$151, DW_AT_bit_size(0x01)
    1865                      .dwattr $C$DW$151, DW_AT_data_member_location[DW_OP_plus_uconst 0x0]
    1866                      .dwattr $C$DW$151, DW_AT_accessibility(DW_ACCESS_public)
    1867              
    1868              $C$DW$152       .dwtag  DW_TAG_member
    1869                      .dwattr $C$DW$152, DW_AT_type(*$C$DW$T$19)
    1870                      .dwattr $C$DW$152, DW_AT_name("ECAP4ENCLK")
    1871                      .dwattr $C$DW$152, DW_AT_TI_symbol_name("_ECAP4ENCLK")
    1872                      .dwattr $C$DW$152, DW_AT_bit_offset(0x04)
    1873                      .dwattr $C$DW$152, DW_AT_bit_size(0x01)
    1874                      .dwattr $C$DW$152, DW_AT_data_member_location[DW_OP_plus_uconst 0x0]
    1875                      .dwattr $C$DW$152, DW_AT_accessibility(DW_ACCESS_public)
    1876              
    1877              $C$DW$153       .dwtag  DW_TAG_member
    1878                      .dwattr $C$DW$153, DW_AT_type(*$C$DW$T$19)
    1879                      .dwattr $C$DW$153, DW_AT_name("ECAP5ENCLK")
    1880                      .dwattr $C$DW$153, DW_AT_TI_symbol_name("_ECAP5ENCLK")
    1881                      .dwattr $C$DW$153, DW_AT_bit_offset(0x03)
    1882                      .dwattr $C$DW$153, DW_AT_bit_size(0x01)
    1883                      .dwattr $C$DW$153, DW_AT_data_member_location[DW_OP_plus_uconst 0x0]
    1884                      .dwattr $C$DW$153, DW_AT_accessibility(DW_ACCESS_public)
    1885              
    1886              $C$DW$154       .dwtag  DW_TAG_member
    1887                      .dwattr $C$DW$154, DW_AT_type(*$C$DW$T$19)
    1888                      .dwattr $C$DW$154, DW_AT_name("ECAP6ENCLK")
    1889                      .dwattr $C$DW$154, DW_AT_TI_symbol_name("_ECAP6ENCLK")
    1890                      .dwattr $C$DW$154, DW_AT_bit_offset(0x02)
    1891                      .dwattr $C$DW$154, DW_AT_bit_size(0x01)
    1892                      .dwattr $C$DW$154, DW_AT_data_member_location[DW_OP_plus_uconst 0x0]
    1893                      .dwattr $C$DW$154, DW_AT_accessibility(DW_ACCESS_public)
    1894              
    1895              $C$DW$155       .dwtag  DW_TAG_member
    1896                      .dwattr $C$DW$155, DW_AT_type(*$C$DW$T$19)
    1897                      .dwattr $C$DW$155, DW_AT_name("EQEP1ENCLK")
    1898                      .dwattr $C$DW$155, DW_AT_TI_symbol_name("_EQEP1ENCLK")
    1899                      .dwattr $C$DW$155, DW_AT_bit_offset(0x01)
    1900                      .dwattr $C$DW$155, DW_AT_bit_size(0x01)
    1901                      .dwattr $C$DW$155, DW_AT_data_member_location[DW_OP_plus_uconst 0x0]
TMS320C2000 Assembler PC v15.12.1 Sat Jun 25 21:32:08 2016

Tools Copyright (c) 1996-2015 Texas Instruments Incorporated
C:\Users\RJKJ_ZGH\AppData\Local\Temp\0869210                         PAGE   37

    1902                      .dwattr $C$DW$155, DW_AT_accessibility(DW_ACCESS_public)
    1903              
    1904              $C$DW$156       .dwtag  DW_TAG_member
    1905                      .dwattr $C$DW$156, DW_AT_type(*$C$DW$T$19)
    1906                      .dwattr $C$DW$156, DW_AT_name("EQEP2ENCLK")
    1907                      .dwattr $C$DW$156, DW_AT_TI_symbol_name("_EQEP2ENCLK")
    1908                      .dwattr $C$DW$156, DW_AT_bit_offset(0x00)
    1909                      .dwattr $C$DW$156, DW_AT_bit_size(0x01)
    1910                      .dwattr $C$DW$156, DW_AT_data_member_location[DW_OP_plus_uconst 0x0]
    1911                      .dwattr $C$DW$156, DW_AT_accessibility(DW_ACCESS_public)
    1912              
    1913                      .dwendtag $C$DW$T$49
    1914              
    1915              
    1916              $C$DW$T$50      .dwtag  DW_TAG_union_type
    1917                      .dwattr $C$DW$T$50, DW_AT_name("PCLKCR1_REG")
    1918                      .dwattr $C$DW$T$50, DW_AT_byte_size(0x01)
    1919              $C$DW$157       .dwtag  DW_TAG_member
    1920                      .dwattr $C$DW$157, DW_AT_type(*$C$DW$T$19)
    1921                      .dwattr $C$DW$157, DW_AT_name("all")
    1922                      .dwattr $C$DW$157, DW_AT_TI_symbol_name("_all")
    1923                      .dwattr $C$DW$157, DW_AT_data_member_location[DW_OP_plus_uconst 0x0]
    1924                      .dwattr $C$DW$157, DW_AT_accessibility(DW_ACCESS_public)
    1925              
    1926              $C$DW$158       .dwtag  DW_TAG_member
    1927                      .dwattr $C$DW$158, DW_AT_type(*$C$DW$T$49)
    1928                      .dwattr $C$DW$158, DW_AT_name("bit")
    1929                      .dwattr $C$DW$158, DW_AT_TI_symbol_name("_bit")
    1930                      .dwattr $C$DW$158, DW_AT_data_member_location[DW_OP_plus_uconst 0x0]
    1931                      .dwattr $C$DW$158, DW_AT_accessibility(DW_ACCESS_public)
    1932              
    1933                      .dwendtag $C$DW$T$50
    1934              
    1935              
    1936              $C$DW$T$51      .dwtag  DW_TAG_structure_type
    1937                      .dwattr $C$DW$T$51, DW_AT_name("PCLKCR3_BITS")
    1938                      .dwattr $C$DW$T$51, DW_AT_byte_size(0x01)
    1939              $C$DW$159       .dwtag  DW_TAG_member
    1940                      .dwattr $C$DW$159, DW_AT_type(*$C$DW$T$19)
    1941                      .dwattr $C$DW$159, DW_AT_name("rsvd1")
    1942                      .dwattr $C$DW$159, DW_AT_TI_symbol_name("_rsvd1")
    1943                      .dwattr $C$DW$159, DW_AT_bit_offset(0x08)
    1944                      .dwattr $C$DW$159, DW_AT_bit_size(0x08)
    1945                      .dwattr $C$DW$159, DW_AT_data_member_location[DW_OP_plus_uconst 0x0]
    1946                      .dwattr $C$DW$159, DW_AT_accessibility(DW_ACCESS_public)
    1947              
    1948              $C$DW$160       .dwtag  DW_TAG_member
    1949                      .dwattr $C$DW$160, DW_AT_type(*$C$DW$T$19)
    1950                      .dwattr $C$DW$160, DW_AT_name("CPUTIMER0ENCLK")
    1951                      .dwattr $C$DW$160, DW_AT_TI_symbol_name("_CPUTIMER0ENCLK")
    1952                      .dwattr $C$DW$160, DW_AT_bit_offset(0x07)
    1953                      .dwattr $C$DW$160, DW_AT_bit_size(0x01)
    1954                      .dwattr $C$DW$160, DW_AT_data_member_location[DW_OP_plus_uconst 0x0]
    1955                      .dwattr $C$DW$160, DW_AT_accessibility(DW_ACCESS_public)
    1956              
TMS320C2000 Assembler PC v15.12.1 Sat Jun 25 21:32:08 2016

Tools Copyright (c) 1996-2015 Texas Instruments Incorporated
C:\Users\RJKJ_ZGH\AppData\Local\Temp\0869210                         PAGE   38

    1957              $C$DW$161       .dwtag  DW_TAG_member
    1958                      .dwattr $C$DW$161, DW_AT_type(*$C$DW$T$19)
    1959                      .dwattr $C$DW$161, DW_AT_name("CPUTIMER1ENCLK")
    1960                      .dwattr $C$DW$161, DW_AT_TI_symbol_name("_CPUTIMER1ENCLK")
    1961                      .dwattr $C$DW$161, DW_AT_bit_offset(0x06)
    1962                      .dwattr $C$DW$161, DW_AT_bit_size(0x01)
    1963                      .dwattr $C$DW$161, DW_AT_data_member_location[DW_OP_plus_uconst 0x0]
    1964                      .dwattr $C$DW$161, DW_AT_accessibility(DW_ACCESS_public)
    1965              
    1966              $C$DW$162       .dwtag  DW_TAG_member
    1967                      .dwattr $C$DW$162, DW_AT_type(*$C$DW$T$19)
    1968                      .dwattr $C$DW$162, DW_AT_name("CPUTIMER2ENCLK")
    1969                      .dwattr $C$DW$162, DW_AT_TI_symbol_name("_CPUTIMER2ENCLK")
    1970                      .dwattr $C$DW$162, DW_AT_bit_offset(0x05)
    1971                      .dwattr $C$DW$162, DW_AT_bit_size(0x01)
    1972                      .dwattr $C$DW$162, DW_AT_data_member_location[DW_OP_plus_uconst 0x0]
    1973                      .dwattr $C$DW$162, DW_AT_accessibility(DW_ACCESS_public)
    1974              
    1975              $C$DW$163       .dwtag  DW_TAG_member
    1976                      .dwattr $C$DW$163, DW_AT_type(*$C$DW$T$19)
    1977                      .dwattr $C$DW$163, DW_AT_name("DMAENCLK")
    1978                      .dwattr $C$DW$163, DW_AT_TI_symbol_name("_DMAENCLK")
    1979                      .dwattr $C$DW$163, DW_AT_bit_offset(0x04)
    1980                      .dwattr $C$DW$163, DW_AT_bit_size(0x01)
    1981                      .dwattr $C$DW$163, DW_AT_data_member_location[DW_OP_plus_uconst 0x0]
    1982                      .dwattr $C$DW$163, DW_AT_accessibility(DW_ACCESS_public)
    1983              
    1984              $C$DW$164       .dwtag  DW_TAG_member
    1985                      .dwattr $C$DW$164, DW_AT_type(*$C$DW$T$19)
    1986                      .dwattr $C$DW$164, DW_AT_name("XINTFENCLK")
    1987                      .dwattr $C$DW$164, DW_AT_TI_symbol_name("_XINTFENCLK")
    1988                      .dwattr $C$DW$164, DW_AT_bit_offset(0x03)
    1989                      .dwattr $C$DW$164, DW_AT_bit_size(0x01)
    1990                      .dwattr $C$DW$164, DW_AT_data_member_location[DW_OP_plus_uconst 0x0]
    1991                      .dwattr $C$DW$164, DW_AT_accessibility(DW_ACCESS_public)
    1992              
    1993              $C$DW$165       .dwtag  DW_TAG_member
    1994                      .dwattr $C$DW$165, DW_AT_type(*$C$DW$T$19)
    1995                      .dwattr $C$DW$165, DW_AT_name("GPIOINENCLK")
    1996                      .dwattr $C$DW$165, DW_AT_TI_symbol_name("_GPIOINENCLK")
    1997                      .dwattr $C$DW$165, DW_AT_bit_offset(0x02)
    1998                      .dwattr $C$DW$165, DW_AT_bit_size(0x01)
    1999                      .dwattr $C$DW$165, DW_AT_data_member_location[DW_OP_plus_uconst 0x0]
    2000                      .dwattr $C$DW$165, DW_AT_accessibility(DW_ACCESS_public)
    2001              
    2002              $C$DW$166       .dwtag  DW_TAG_member
    2003                      .dwattr $C$DW$166, DW_AT_type(*$C$DW$T$19)
    2004                      .dwattr $C$DW$166, DW_AT_name("rsvd2")
    2005                      .dwattr $C$DW$166, DW_AT_TI_symbol_name("_rsvd2")
    2006                      .dwattr $C$DW$166, DW_AT_bit_offset(0x00)
    2007                      .dwattr $C$DW$166, DW_AT_bit_size(0x02)
    2008                      .dwattr $C$DW$166, DW_AT_data_member_location[DW_OP_plus_uconst 0x0]
    2009                      .dwattr $C$DW$166, DW_AT_accessibility(DW_ACCESS_public)
    2010              
    2011                      .dwendtag $C$DW$T$51
TMS320C2000 Assembler PC v15.12.1 Sat Jun 25 21:32:08 2016

Tools Copyright (c) 1996-2015 Texas Instruments Incorporated
C:\Users\RJKJ_ZGH\AppData\Local\Temp\0869210                         PAGE   39

    2012              
    2013              
    2014              $C$DW$T$52      .dwtag  DW_TAG_union_type
    2015                      .dwattr $C$DW$T$52, DW_AT_name("PCLKCR3_REG")
    2016                      .dwattr $C$DW$T$52, DW_AT_byte_size(0x01)
    2017              $C$DW$167       .dwtag  DW_TAG_member
    2018                      .dwattr $C$DW$167, DW_AT_type(*$C$DW$T$19)
    2019                      .dwattr $C$DW$167, DW_AT_name("all")
    2020                      .dwattr $C$DW$167, DW_AT_TI_symbol_name("_all")
    2021                      .dwattr $C$DW$167, DW_AT_data_member_location[DW_OP_plus_uconst 0x0]
    2022                      .dwattr $C$DW$167, DW_AT_accessibility(DW_ACCESS_public)
    2023              
    2024              $C$DW$168       .dwtag  DW_TAG_member
    2025                      .dwattr $C$DW$168, DW_AT_type(*$C$DW$T$51)
    2026                      .dwattr $C$DW$168, DW_AT_name("bit")
    2027                      .dwattr $C$DW$168, DW_AT_TI_symbol_name("_bit")
    2028                      .dwattr $C$DW$168, DW_AT_data_member_location[DW_OP_plus_uconst 0x0]
    2029                      .dwattr $C$DW$168, DW_AT_accessibility(DW_ACCESS_public)
    2030              
    2031                      .dwendtag $C$DW$T$52
    2032              
    2033              
    2034              $C$DW$T$53      .dwtag  DW_TAG_structure_type
    2035                      .dwattr $C$DW$T$53, DW_AT_name("PLLCR_BITS")
    2036                      .dwattr $C$DW$T$53, DW_AT_byte_size(0x01)
    2037              $C$DW$169       .dwtag  DW_TAG_member
    2038                      .dwattr $C$DW$169, DW_AT_type(*$C$DW$T$19)
    2039                      .dwattr $C$DW$169, DW_AT_name("DIV")
    2040                      .dwattr $C$DW$169, DW_AT_TI_symbol_name("_DIV")
    2041                      .dwattr $C$DW$169, DW_AT_bit_offset(0x0c)
    2042                      .dwattr $C$DW$169, DW_AT_bit_size(0x04)
    2043                      .dwattr $C$DW$169, DW_AT_data_member_location[DW_OP_plus_uconst 0x0]
    2044                      .dwattr $C$DW$169, DW_AT_accessibility(DW_ACCESS_public)
    2045              
    2046              $C$DW$170       .dwtag  DW_TAG_member
    2047                      .dwattr $C$DW$170, DW_AT_type(*$C$DW$T$19)
    2048                      .dwattr $C$DW$170, DW_AT_name("rsvd1")
    2049                      .dwattr $C$DW$170, DW_AT_TI_symbol_name("_rsvd1")
    2050                      .dwattr $C$DW$170, DW_AT_bit_offset(0x00)
    2051                      .dwattr $C$DW$170, DW_AT_bit_size(0x0c)
    2052                      .dwattr $C$DW$170, DW_AT_data_member_location[DW_OP_plus_uconst 0x0]
    2053                      .dwattr $C$DW$170, DW_AT_accessibility(DW_ACCESS_public)
    2054              
    2055                      .dwendtag $C$DW$T$53
    2056              
    2057              
    2058              $C$DW$T$54      .dwtag  DW_TAG_union_type
    2059                      .dwattr $C$DW$T$54, DW_AT_name("PLLCR_REG")
    2060                      .dwattr $C$DW$T$54, DW_AT_byte_size(0x01)
    2061              $C$DW$171       .dwtag  DW_TAG_member
    2062                      .dwattr $C$DW$171, DW_AT_type(*$C$DW$T$19)
    2063                      .dwattr $C$DW$171, DW_AT_name("all")
    2064                      .dwattr $C$DW$171, DW_AT_TI_symbol_name("_all")
    2065                      .dwattr $C$DW$171, DW_AT_data_member_location[DW_OP_plus_uconst 0x0]
    2066                      .dwattr $C$DW$171, DW_AT_accessibility(DW_ACCESS_public)
TMS320C2000 Assembler PC v15.12.1 Sat Jun 25 21:32:08 2016

Tools Copyright (c) 1996-2015 Texas Instruments Incorporated
C:\Users\RJKJ_ZGH\AppData\Local\Temp\0869210                         PAGE   40

    2067              
    2068              $C$DW$172       .dwtag  DW_TAG_member
    2069                      .dwattr $C$DW$172, DW_AT_type(*$C$DW$T$53)
    2070                      .dwattr $C$DW$172, DW_AT_name("bit")
    2071                      .dwattr $C$DW$172, DW_AT_TI_symbol_name("_bit")
    2072                      .dwattr $C$DW$172, DW_AT_data_member_location[DW_OP_plus_uconst 0x0]
    2073                      .dwattr $C$DW$172, DW_AT_accessibility(DW_ACCESS_public)
    2074              
    2075                      .dwendtag $C$DW$T$54
    2076              
    2077              
    2078              $C$DW$T$55      .dwtag  DW_TAG_structure_type
    2079                      .dwattr $C$DW$T$55, DW_AT_name("PLLSTS_BITS")
    2080                      .dwattr $C$DW$T$55, DW_AT_byte_size(0x01)
    2081              $C$DW$173       .dwtag  DW_TAG_member
    2082                      .dwattr $C$DW$173, DW_AT_type(*$C$DW$T$19)
    2083                      .dwattr $C$DW$173, DW_AT_name("PLLLOCKS")
    2084                      .dwattr $C$DW$173, DW_AT_TI_symbol_name("_PLLLOCKS")
    2085                      .dwattr $C$DW$173, DW_AT_bit_offset(0x0f)
    2086                      .dwattr $C$DW$173, DW_AT_bit_size(0x01)
    2087                      .dwattr $C$DW$173, DW_AT_data_member_location[DW_OP_plus_uconst 0x0]
    2088                      .dwattr $C$DW$173, DW_AT_accessibility(DW_ACCESS_public)
    2089              
    2090              $C$DW$174       .dwtag  DW_TAG_member
    2091                      .dwattr $C$DW$174, DW_AT_type(*$C$DW$T$19)
    2092                      .dwattr $C$DW$174, DW_AT_name("rsvd1")
    2093                      .dwattr $C$DW$174, DW_AT_TI_symbol_name("_rsvd1")
    2094                      .dwattr $C$DW$174, DW_AT_bit_offset(0x0e)
    2095                      .dwattr $C$DW$174, DW_AT_bit_size(0x01)
    2096                      .dwattr $C$DW$174, DW_AT_data_member_location[DW_OP_plus_uconst 0x0]
    2097                      .dwattr $C$DW$174, DW_AT_accessibility(DW_ACCESS_public)
    2098              
    2099              $C$DW$175       .dwtag  DW_TAG_member
    2100                      .dwattr $C$DW$175, DW_AT_type(*$C$DW$T$19)
    2101                      .dwattr $C$DW$175, DW_AT_name("PLLOFF")
    2102                      .dwattr $C$DW$175, DW_AT_TI_symbol_name("_PLLOFF")
    2103                      .dwattr $C$DW$175, DW_AT_bit_offset(0x0d)
    2104                      .dwattr $C$DW$175, DW_AT_bit_size(0x01)
    2105                      .dwattr $C$DW$175, DW_AT_data_member_location[DW_OP_plus_uconst 0x0]
    2106                      .dwattr $C$DW$175, DW_AT_accessibility(DW_ACCESS_public)
    2107              
    2108              $C$DW$176       .dwtag  DW_TAG_member
    2109                      .dwattr $C$DW$176, DW_AT_type(*$C$DW$T$19)
    2110                      .dwattr $C$DW$176, DW_AT_name("MCLKSTS")
    2111                      .dwattr $C$DW$176, DW_AT_TI_symbol_name("_MCLKSTS")
    2112                      .dwattr $C$DW$176, DW_AT_bit_offset(0x0c)
    2113                      .dwattr $C$DW$176, DW_AT_bit_size(0x01)
    2114                      .dwattr $C$DW$176, DW_AT_data_member_location[DW_OP_plus_uconst 0x0]
    2115                      .dwattr $C$DW$176, DW_AT_accessibility(DW_ACCESS_public)
    2116              
    2117              $C$DW$177       .dwtag  DW_TAG_member
    2118                      .dwattr $C$DW$177, DW_AT_type(*$C$DW$T$19)
    2119                      .dwattr $C$DW$177, DW_AT_name("MCLKCLR")
    2120                      .dwattr $C$DW$177, DW_AT_TI_symbol_name("_MCLKCLR")
    2121                      .dwattr $C$DW$177, DW_AT_bit_offset(0x0b)
TMS320C2000 Assembler PC v15.12.1 Sat Jun 25 21:32:08 2016

Tools Copyright (c) 1996-2015 Texas Instruments Incorporated
C:\Users\RJKJ_ZGH\AppData\Local\Temp\0869210                         PAGE   41

    2122                      .dwattr $C$DW$177, DW_AT_bit_size(0x01)
    2123                      .dwattr $C$DW$177, DW_AT_data_member_location[DW_OP_plus_uconst 0x0]
    2124                      .dwattr $C$DW$177, DW_AT_accessibility(DW_ACCESS_public)
    2125              
    2126              $C$DW$178       .dwtag  DW_TAG_member
    2127                      .dwattr $C$DW$178, DW_AT_type(*$C$DW$T$19)
    2128                      .dwattr $C$DW$178, DW_AT_name("OSCOFF")
    2129                      .dwattr $C$DW$178, DW_AT_TI_symbol_name("_OSCOFF")
    2130                      .dwattr $C$DW$178, DW_AT_bit_offset(0x0a)
    2131                      .dwattr $C$DW$178, DW_AT_bit_size(0x01)
    2132                      .dwattr $C$DW$178, DW_AT_data_member_location[DW_OP_plus_uconst 0x0]
    2133                      .dwattr $C$DW$178, DW_AT_accessibility(DW_ACCESS_public)
    2134              
    2135              $C$DW$179       .dwtag  DW_TAG_member
    2136                      .dwattr $C$DW$179, DW_AT_type(*$C$DW$T$19)
    2137                      .dwattr $C$DW$179, DW_AT_name("MCLKOFF")
    2138                      .dwattr $C$DW$179, DW_AT_TI_symbol_name("_MCLKOFF")
    2139                      .dwattr $C$DW$179, DW_AT_bit_offset(0x09)
    2140                      .dwattr $C$DW$179, DW_AT_bit_size(0x01)
    2141                      .dwattr $C$DW$179, DW_AT_data_member_location[DW_OP_plus_uconst 0x0]
    2142                      .dwattr $C$DW$179, DW_AT_accessibility(DW_ACCESS_public)
    2143              
    2144              $C$DW$180       .dwtag  DW_TAG_member
    2145                      .dwattr $C$DW$180, DW_AT_type(*$C$DW$T$19)
    2146                      .dwattr $C$DW$180, DW_AT_name("DIVSEL")
    2147                      .dwattr $C$DW$180, DW_AT_TI_symbol_name("_DIVSEL")
    2148                      .dwattr $C$DW$180, DW_AT_bit_offset(0x07)
    2149                      .dwattr $C$DW$180, DW_AT_bit_size(0x02)
    2150                      .dwattr $C$DW$180, DW_AT_data_member_location[DW_OP_plus_uconst 0x0]
    2151                      .dwattr $C$DW$180, DW_AT_accessibility(DW_ACCESS_public)
    2152              
    2153              $C$DW$181       .dwtag  DW_TAG_member
    2154                      .dwattr $C$DW$181, DW_AT_type(*$C$DW$T$19)
    2155                      .dwattr $C$DW$181, DW_AT_name("rsvd2")
    2156                      .dwattr $C$DW$181, DW_AT_TI_symbol_name("_rsvd2")
    2157                      .dwattr $C$DW$181, DW_AT_bit_offset(0x00)
    2158                      .dwattr $C$DW$181, DW_AT_bit_size(0x07)
    2159                      .dwattr $C$DW$181, DW_AT_data_member_location[DW_OP_plus_uconst 0x0]
    2160                      .dwattr $C$DW$181, DW_AT_accessibility(DW_ACCESS_public)
    2161              
    2162                      .dwendtag $C$DW$T$55
    2163              
    2164              
    2165              $C$DW$T$56      .dwtag  DW_TAG_union_type
    2166                      .dwattr $C$DW$T$56, DW_AT_name("PLLSTS_REG")
    2167                      .dwattr $C$DW$T$56, DW_AT_byte_size(0x01)
    2168              $C$DW$182       .dwtag  DW_TAG_member
    2169                      .dwattr $C$DW$182, DW_AT_type(*$C$DW$T$19)
    2170                      .dwattr $C$DW$182, DW_AT_name("all")
    2171                      .dwattr $C$DW$182, DW_AT_TI_symbol_name("_all")
    2172                      .dwattr $C$DW$182, DW_AT_data_member_location[DW_OP_plus_uconst 0x0]
    2173                      .dwattr $C$DW$182, DW_AT_accessibility(DW_ACCESS_public)
    2174              
    2175              $C$DW$183       .dwtag  DW_TAG_member
    2176                      .dwattr $C$DW$183, DW_AT_type(*$C$DW$T$55)
TMS320C2000 Assembler PC v15.12.1 Sat Jun 25 21:32:08 2016

Tools Copyright (c) 1996-2015 Texas Instruments Incorporated
C:\Users\RJKJ_ZGH\AppData\Local\Temp\0869210                         PAGE   42

    2177                      .dwattr $C$DW$183, DW_AT_name("bit")
    2178                      .dwattr $C$DW$183, DW_AT_TI_symbol_name("_bit")
    2179                      .dwattr $C$DW$183, DW_AT_data_member_location[DW_OP_plus_uconst 0x0]
    2180                      .dwattr $C$DW$183, DW_AT_accessibility(DW_ACCESS_public)
    2181              
    2182                      .dwendtag $C$DW$T$56
    2183              
    2184              
    2185              $C$DW$T$61      .dwtag  DW_TAG_structure_type
    2186                      .dwattr $C$DW$T$61, DW_AT_name("SYS_CTRL_REGS")
    2187                      .dwattr $C$DW$T$61, DW_AT_byte_size(0x20)
    2188              $C$DW$184       .dwtag  DW_TAG_member
    2189                      .dwattr $C$DW$184, DW_AT_type(*$C$DW$T$19)
    2190                      .dwattr $C$DW$184, DW_AT_name("rsvd1")
    2191                      .dwattr $C$DW$184, DW_AT_TI_symbol_name("_rsvd1")
    2192                      .dwattr $C$DW$184, DW_AT_data_member_location[DW_OP_plus_uconst 0x0]
    2193                      .dwattr $C$DW$184, DW_AT_accessibility(DW_ACCESS_public)
    2194              
    2195              $C$DW$185       .dwtag  DW_TAG_member
    2196                      .dwattr $C$DW$185, DW_AT_type(*$C$DW$T$56)
    2197                      .dwattr $C$DW$185, DW_AT_name("PLLSTS")
    2198                      .dwattr $C$DW$185, DW_AT_TI_symbol_name("_PLLSTS")
    2199                      .dwattr $C$DW$185, DW_AT_data_member_location[DW_OP_plus_uconst 0x1]
    2200                      .dwattr $C$DW$185, DW_AT_accessibility(DW_ACCESS_public)
    2201              
    2202              $C$DW$186       .dwtag  DW_TAG_member
    2203                      .dwattr $C$DW$186, DW_AT_type(*$C$DW$T$57)
    2204                      .dwattr $C$DW$186, DW_AT_name("rsvd2")
    2205                      .dwattr $C$DW$186, DW_AT_TI_symbol_name("_rsvd2")
    2206                      .dwattr $C$DW$186, DW_AT_data_member_location[DW_OP_plus_uconst 0x2]
    2207                      .dwattr $C$DW$186, DW_AT_accessibility(DW_ACCESS_public)
    2208              
    2209              $C$DW$187       .dwtag  DW_TAG_member
    2210                      .dwattr $C$DW$187, DW_AT_type(*$C$DW$T$40)
    2211                      .dwattr $C$DW$187, DW_AT_name("HISPCP")
    2212                      .dwattr $C$DW$187, DW_AT_TI_symbol_name("_HISPCP")
    2213                      .dwattr $C$DW$187, DW_AT_data_member_location[DW_OP_plus_uconst 0xa]
    2214                      .dwattr $C$DW$187, DW_AT_accessibility(DW_ACCESS_public)
    2215              
    2216              $C$DW$188       .dwtag  DW_TAG_member
    2217                      .dwattr $C$DW$188, DW_AT_type(*$C$DW$T$42)
    2218                      .dwattr $C$DW$188, DW_AT_name("LOSPCP")
    2219                      .dwattr $C$DW$188, DW_AT_TI_symbol_name("_LOSPCP")
    2220                      .dwattr $C$DW$188, DW_AT_data_member_location[DW_OP_plus_uconst 0xb]
    2221                      .dwattr $C$DW$188, DW_AT_accessibility(DW_ACCESS_public)
    2222              
    2223              $C$DW$189       .dwtag  DW_TAG_member
    2224                      .dwattr $C$DW$189, DW_AT_type(*$C$DW$T$48)
    2225                      .dwattr $C$DW$189, DW_AT_name("PCLKCR0")
    2226                      .dwattr $C$DW$189, DW_AT_TI_symbol_name("_PCLKCR0")
    2227                      .dwattr $C$DW$189, DW_AT_data_member_location[DW_OP_plus_uconst 0xc]
    2228                      .dwattr $C$DW$189, DW_AT_accessibility(DW_ACCESS_public)
    2229              
    2230              $C$DW$190       .dwtag  DW_TAG_member
    2231                      .dwattr $C$DW$190, DW_AT_type(*$C$DW$T$50)
TMS320C2000 Assembler PC v15.12.1 Sat Jun 25 21:32:08 2016

Tools Copyright (c) 1996-2015 Texas Instruments Incorporated
C:\Users\RJKJ_ZGH\AppData\Local\Temp\0869210                         PAGE   43

    2232                      .dwattr $C$DW$190, DW_AT_name("PCLKCR1")
    2233                      .dwattr $C$DW$190, DW_AT_TI_symbol_name("_PCLKCR1")
    2234                      .dwattr $C$DW$190, DW_AT_data_member_location[DW_OP_plus_uconst 0xd]
    2235                      .dwattr $C$DW$190, DW_AT_accessibility(DW_ACCESS_public)
    2236              
    2237              $C$DW$191       .dwtag  DW_TAG_member
    2238                      .dwattr $C$DW$191, DW_AT_type(*$C$DW$T$44)
    2239                      .dwattr $C$DW$191, DW_AT_name("LPMCR0")
    2240                      .dwattr $C$DW$191, DW_AT_TI_symbol_name("_LPMCR0")
    2241                      .dwattr $C$DW$191, DW_AT_data_member_location[DW_OP_plus_uconst 0xe]
    2242                      .dwattr $C$DW$191, DW_AT_accessibility(DW_ACCESS_public)
    2243              
    2244              $C$DW$192       .dwtag  DW_TAG_member
    2245                      .dwattr $C$DW$192, DW_AT_type(*$C$DW$T$19)
    2246                      .dwattr $C$DW$192, DW_AT_name("rsvd3")
    2247                      .dwattr $C$DW$192, DW_AT_TI_symbol_name("_rsvd3")
    2248                      .dwattr $C$DW$192, DW_AT_data_member_location[DW_OP_plus_uconst 0xf]
    2249                      .dwattr $C$DW$192, DW_AT_accessibility(DW_ACCESS_public)
    2250              
    2251              $C$DW$193       .dwtag  DW_TAG_member
    2252                      .dwattr $C$DW$193, DW_AT_type(*$C$DW$T$52)
    2253                      .dwattr $C$DW$193, DW_AT_name("PCLKCR3")
    2254                      .dwattr $C$DW$193, DW_AT_TI_symbol_name("_PCLKCR3")
    2255                      .dwattr $C$DW$193, DW_AT_data_member_location[DW_OP_plus_uconst 0x10]
    2256                      .dwattr $C$DW$193, DW_AT_accessibility(DW_ACCESS_public)
    2257              
    2258              $C$DW$194       .dwtag  DW_TAG_member
    2259                      .dwattr $C$DW$194, DW_AT_type(*$C$DW$T$54)
    2260                      .dwattr $C$DW$194, DW_AT_name("PLLCR")
    2261                      .dwattr $C$DW$194, DW_AT_TI_symbol_name("_PLLCR")
    2262                      .dwattr $C$DW$194, DW_AT_data_member_location[DW_OP_plus_uconst 0x11]
    2263                      .dwattr $C$DW$194, DW_AT_accessibility(DW_ACCESS_public)
    2264              
    2265              $C$DW$195       .dwtag  DW_TAG_member
    2266                      .dwattr $C$DW$195, DW_AT_type(*$C$DW$T$19)
    2267                      .dwattr $C$DW$195, DW_AT_name("SCSR")
    2268                      .dwattr $C$DW$195, DW_AT_TI_symbol_name("_SCSR")
    2269                      .dwattr $C$DW$195, DW_AT_data_member_location[DW_OP_plus_uconst 0x12]
    2270                      .dwattr $C$DW$195, DW_AT_accessibility(DW_ACCESS_public)
    2271              
    2272              $C$DW$196       .dwtag  DW_TAG_member
    2273                      .dwattr $C$DW$196, DW_AT_type(*$C$DW$T$19)
    2274                      .dwattr $C$DW$196, DW_AT_name("WDCNTR")
    2275                      .dwattr $C$DW$196, DW_AT_TI_symbol_name("_WDCNTR")
    2276                      .dwattr $C$DW$196, DW_AT_data_member_location[DW_OP_plus_uconst 0x13]
    2277                      .dwattr $C$DW$196, DW_AT_accessibility(DW_ACCESS_public)
    2278              
    2279              $C$DW$197       .dwtag  DW_TAG_member
    2280                      .dwattr $C$DW$197, DW_AT_type(*$C$DW$T$19)
    2281                      .dwattr $C$DW$197, DW_AT_name("rsvd4")
    2282                      .dwattr $C$DW$197, DW_AT_TI_symbol_name("_rsvd4")
    2283                      .dwattr $C$DW$197, DW_AT_data_member_location[DW_OP_plus_uconst 0x14]
    2284                      .dwattr $C$DW$197, DW_AT_accessibility(DW_ACCESS_public)
    2285              
    2286              $C$DW$198       .dwtag  DW_TAG_member
TMS320C2000 Assembler PC v15.12.1 Sat Jun 25 21:32:08 2016

Tools Copyright (c) 1996-2015 Texas Instruments Incorporated
C:\Users\RJKJ_ZGH\AppData\Local\Temp\0869210                         PAGE   44

    2287                      .dwattr $C$DW$198, DW_AT_type(*$C$DW$T$19)
    2288                      .dwattr $C$DW$198, DW_AT_name("WDKEY")
    2289                      .dwattr $C$DW$198, DW_AT_TI_symbol_name("_WDKEY")
    2290                      .dwattr $C$DW$198, DW_AT_data_member_location[DW_OP_plus_uconst 0x15]
    2291                      .dwattr $C$DW$198, DW_AT_accessibility(DW_ACCESS_public)
    2292              
    2293              $C$DW$199       .dwtag  DW_TAG_member
    2294                      .dwattr $C$DW$199, DW_AT_type(*$C$DW$T$58)
    2295                      .dwattr $C$DW$199, DW_AT_name("rsvd5")
    2296                      .dwattr $C$DW$199, DW_AT_TI_symbol_name("_rsvd5")
    2297                      .dwattr $C$DW$199, DW_AT_data_member_location[DW_OP_plus_uconst 0x16]
    2298                      .dwattr $C$DW$199, DW_AT_accessibility(DW_ACCESS_public)
    2299              
    2300              $C$DW$200       .dwtag  DW_TAG_member
    2301                      .dwattr $C$DW$200, DW_AT_type(*$C$DW$T$19)
    2302                      .dwattr $C$DW$200, DW_AT_name("WDCR")
    2303                      .dwattr $C$DW$200, DW_AT_TI_symbol_name("_WDCR")
    2304                      .dwattr $C$DW$200, DW_AT_data_member_location[DW_OP_plus_uconst 0x19]
    2305                      .dwattr $C$DW$200, DW_AT_accessibility(DW_ACCESS_public)
    2306              
    2307              $C$DW$201       .dwtag  DW_TAG_member
    2308                      .dwattr $C$DW$201, DW_AT_type(*$C$DW$T$59)
    2309                      .dwattr $C$DW$201, DW_AT_name("rsvd6")
    2310                      .dwattr $C$DW$201, DW_AT_TI_symbol_name("_rsvd6")
    2311                      .dwattr $C$DW$201, DW_AT_data_member_location[DW_OP_plus_uconst 0x1a]
    2312                      .dwattr $C$DW$201, DW_AT_accessibility(DW_ACCESS_public)
    2313              
    2314              $C$DW$202       .dwtag  DW_TAG_member
    2315                      .dwattr $C$DW$202, DW_AT_type(*$C$DW$T$46)
    2316                      .dwattr $C$DW$202, DW_AT_name("MAPCNF")
    2317                      .dwattr $C$DW$202, DW_AT_TI_symbol_name("_MAPCNF")
    2318                      .dwattr $C$DW$202, DW_AT_data_member_location[DW_OP_plus_uconst 0x1e]
    2319                      .dwattr $C$DW$202, DW_AT_accessibility(DW_ACCESS_public)
    2320              
    2321              $C$DW$203       .dwtag  DW_TAG_member
    2322                      .dwattr $C$DW$203, DW_AT_type(*$C$DW$T$60)
    2323                      .dwattr $C$DW$203, DW_AT_name("rsvd7")
    2324                      .dwattr $C$DW$203, DW_AT_TI_symbol_name("_rsvd7")
    2325                      .dwattr $C$DW$203, DW_AT_data_member_location[DW_OP_plus_uconst 0x1f]
    2326                      .dwattr $C$DW$203, DW_AT_accessibility(DW_ACCESS_public)
    2327              
    2328                      .dwendtag $C$DW$T$61
    2329              
    2330              $C$DW$204       .dwtag  DW_TAG_TI_far_type
    2331                      .dwattr $C$DW$204, DW_AT_type(*$C$DW$T$61)
    2332              
    2333              $C$DW$T$102     .dwtag  DW_TAG_volatile_type
    2334                      .dwattr $C$DW$T$102, DW_AT_type(*$C$DW$204)
    2335              
    2336              
    2337              $C$DW$T$62      .dwtag  DW_TAG_structure_type
    2338                      .dwattr $C$DW$T$62, DW_AT_name("XBANK_BITS")
    2339                      .dwattr $C$DW$T$62, DW_AT_byte_size(0x01)
    2340              $C$DW$205       .dwtag  DW_TAG_member
    2341                      .dwattr $C$DW$205, DW_AT_type(*$C$DW$T$19)
TMS320C2000 Assembler PC v15.12.1 Sat Jun 25 21:32:08 2016

Tools Copyright (c) 1996-2015 Texas Instruments Incorporated
C:\Users\RJKJ_ZGH\AppData\Local\Temp\0869210                         PAGE   45

    2342                      .dwattr $C$DW$205, DW_AT_name("BANK")
    2343                      .dwattr $C$DW$205, DW_AT_TI_symbol_name("_BANK")
    2344                      .dwattr $C$DW$205, DW_AT_bit_offset(0x0d)
    2345                      .dwattr $C$DW$205, DW_AT_bit_size(0x03)
    2346                      .dwattr $C$DW$205, DW_AT_data_member_location[DW_OP_plus_uconst 0x0]
    2347                      .dwattr $C$DW$205, DW_AT_accessibility(DW_ACCESS_public)
    2348              
    2349              $C$DW$206       .dwtag  DW_TAG_member
    2350                      .dwattr $C$DW$206, DW_AT_type(*$C$DW$T$19)
    2351                      .dwattr $C$DW$206, DW_AT_name("BCYC")
    2352                      .dwattr $C$DW$206, DW_AT_TI_symbol_name("_BCYC")
    2353                      .dwattr $C$DW$206, DW_AT_bit_offset(0x0a)
    2354                      .dwattr $C$DW$206, DW_AT_bit_size(0x03)
    2355                      .dwattr $C$DW$206, DW_AT_data_member_location[DW_OP_plus_uconst 0x0]
    2356                      .dwattr $C$DW$206, DW_AT_accessibility(DW_ACCESS_public)
    2357              
    2358              $C$DW$207       .dwtag  DW_TAG_member
    2359                      .dwattr $C$DW$207, DW_AT_type(*$C$DW$T$19)
    2360                      .dwattr $C$DW$207, DW_AT_name("rsvd")
    2361                      .dwattr $C$DW$207, DW_AT_TI_symbol_name("_rsvd")
    2362                      .dwattr $C$DW$207, DW_AT_bit_offset(0x00)
    2363                      .dwattr $C$DW$207, DW_AT_bit_size(0x0a)
    2364                      .dwattr $C$DW$207, DW_AT_data_member_location[DW_OP_plus_uconst 0x0]
    2365                      .dwattr $C$DW$207, DW_AT_accessibility(DW_ACCESS_public)
    2366              
    2367                      .dwendtag $C$DW$T$62
    2368              
    2369              
    2370              $C$DW$T$63      .dwtag  DW_TAG_union_type
    2371                      .dwattr $C$DW$T$63, DW_AT_name("XBANK_REG")
    2372                      .dwattr $C$DW$T$63, DW_AT_byte_size(0x01)
    2373              $C$DW$208       .dwtag  DW_TAG_member
    2374                      .dwattr $C$DW$208, DW_AT_type(*$C$DW$T$19)
    2375                      .dwattr $C$DW$208, DW_AT_name("all")
    2376                      .dwattr $C$DW$208, DW_AT_TI_symbol_name("_all")
    2377                      .dwattr $C$DW$208, DW_AT_data_member_location[DW_OP_plus_uconst 0x0]
    2378                      .dwattr $C$DW$208, DW_AT_accessibility(DW_ACCESS_public)
    2379              
    2380              $C$DW$209       .dwtag  DW_TAG_member
    2381                      .dwattr $C$DW$209, DW_AT_type(*$C$DW$T$62)
    2382                      .dwattr $C$DW$209, DW_AT_name("bit")
    2383                      .dwattr $C$DW$209, DW_AT_TI_symbol_name("_bit")
    2384                      .dwattr $C$DW$209, DW_AT_data_member_location[DW_OP_plus_uconst 0x0]
    2385                      .dwattr $C$DW$209, DW_AT_accessibility(DW_ACCESS_public)
    2386              
    2387                      .dwendtag $C$DW$T$63
    2388              
    2389              
    2390              $C$DW$T$64      .dwtag  DW_TAG_structure_type
    2391                      .dwattr $C$DW$T$64, DW_AT_name("XINTCNF2_BITS")
    2392                      .dwattr $C$DW$T$64, DW_AT_byte_size(0x02)
    2393              $C$DW$210       .dwtag  DW_TAG_member
    2394                      .dwattr $C$DW$210, DW_AT_type(*$C$DW$T$19)
    2395                      .dwattr $C$DW$210, DW_AT_name("WRBUFF")
    2396                      .dwattr $C$DW$210, DW_AT_TI_symbol_name("_WRBUFF")
TMS320C2000 Assembler PC v15.12.1 Sat Jun 25 21:32:08 2016

Tools Copyright (c) 1996-2015 Texas Instruments Incorporated
C:\Users\RJKJ_ZGH\AppData\Local\Temp\0869210                         PAGE   46

    2397                      .dwattr $C$DW$210, DW_AT_bit_offset(0x0e)
    2398                      .dwattr $C$DW$210, DW_AT_bit_size(0x02)
    2399                      .dwattr $C$DW$210, DW_AT_data_member_location[DW_OP_plus_uconst 0x0]
    2400                      .dwattr $C$DW$210, DW_AT_accessibility(DW_ACCESS_public)
    2401              
    2402              $C$DW$211       .dwtag  DW_TAG_member
    2403                      .dwattr $C$DW$211, DW_AT_type(*$C$DW$T$19)
    2404                      .dwattr $C$DW$211, DW_AT_name("CLKMODE")
    2405                      .dwattr $C$DW$211, DW_AT_TI_symbol_name("_CLKMODE")
    2406                      .dwattr $C$DW$211, DW_AT_bit_offset(0x0d)
    2407                      .dwattr $C$DW$211, DW_AT_bit_size(0x01)
    2408                      .dwattr $C$DW$211, DW_AT_data_member_location[DW_OP_plus_uconst 0x0]
    2409                      .dwattr $C$DW$211, DW_AT_accessibility(DW_ACCESS_public)
    2410              
    2411              $C$DW$212       .dwtag  DW_TAG_member
    2412                      .dwattr $C$DW$212, DW_AT_type(*$C$DW$T$19)
    2413                      .dwattr $C$DW$212, DW_AT_name("CLKOFF")
    2414                      .dwattr $C$DW$212, DW_AT_TI_symbol_name("_CLKOFF")
    2415                      .dwattr $C$DW$212, DW_AT_bit_offset(0x0c)
    2416                      .dwattr $C$DW$212, DW_AT_bit_size(0x01)
    2417                      .dwattr $C$DW$212, DW_AT_data_member_location[DW_OP_plus_uconst 0x0]
    2418                      .dwattr $C$DW$212, DW_AT_accessibility(DW_ACCESS_public)
    2419              
    2420              $C$DW$213       .dwtag  DW_TAG_member
    2421                      .dwattr $C$DW$213, DW_AT_type(*$C$DW$T$19)
    2422                      .dwattr $C$DW$213, DW_AT_name("rsvd1")
    2423                      .dwattr $C$DW$213, DW_AT_TI_symbol_name("_rsvd1")
    2424                      .dwattr $C$DW$213, DW_AT_bit_offset(0x0a)
    2425                      .dwattr $C$DW$213, DW_AT_bit_size(0x02)
    2426                      .dwattr $C$DW$213, DW_AT_data_member_location[DW_OP_plus_uconst 0x0]
    2427                      .dwattr $C$DW$213, DW_AT_accessibility(DW_ACCESS_public)
    2428              
    2429              $C$DW$214       .dwtag  DW_TAG_member
    2430                      .dwattr $C$DW$214, DW_AT_type(*$C$DW$T$19)
    2431                      .dwattr $C$DW$214, DW_AT_name("WLEVEL")
    2432                      .dwattr $C$DW$214, DW_AT_TI_symbol_name("_WLEVEL")
    2433                      .dwattr $C$DW$214, DW_AT_bit_offset(0x08)
    2434                      .dwattr $C$DW$214, DW_AT_bit_size(0x02)
    2435                      .dwattr $C$DW$214, DW_AT_data_member_location[DW_OP_plus_uconst 0x0]
    2436                      .dwattr $C$DW$214, DW_AT_accessibility(DW_ACCESS_public)
    2437              
    2438              $C$DW$215       .dwtag  DW_TAG_member
    2439                      .dwattr $C$DW$215, DW_AT_type(*$C$DW$T$19)
    2440                      .dwattr $C$DW$215, DW_AT_name("rsvd2")
    2441                      .dwattr $C$DW$215, DW_AT_TI_symbol_name("_rsvd2")
    2442                      .dwattr $C$DW$215, DW_AT_bit_offset(0x07)
    2443                      .dwattr $C$DW$215, DW_AT_bit_size(0x01)
    2444                      .dwattr $C$DW$215, DW_AT_data_member_location[DW_OP_plus_uconst 0x0]
    2445                      .dwattr $C$DW$215, DW_AT_accessibility(DW_ACCESS_public)
    2446              
    2447              $C$DW$216       .dwtag  DW_TAG_member
    2448                      .dwattr $C$DW$216, DW_AT_type(*$C$DW$T$19)
    2449                      .dwattr $C$DW$216, DW_AT_name("HOLD")
    2450                      .dwattr $C$DW$216, DW_AT_TI_symbol_name("_HOLD")
    2451                      .dwattr $C$DW$216, DW_AT_bit_offset(0x06)
TMS320C2000 Assembler PC v15.12.1 Sat Jun 25 21:32:08 2016

Tools Copyright (c) 1996-2015 Texas Instruments Incorporated
C:\Users\RJKJ_ZGH\AppData\Local\Temp\0869210                         PAGE   47

    2452                      .dwattr $C$DW$216, DW_AT_bit_size(0x01)
    2453                      .dwattr $C$DW$216, DW_AT_data_member_location[DW_OP_plus_uconst 0x0]
    2454                      .dwattr $C$DW$216, DW_AT_accessibility(DW_ACCESS_public)
    2455              
    2456              $C$DW$217       .dwtag  DW_TAG_member
    2457                      .dwattr $C$DW$217, DW_AT_type(*$C$DW$T$19)
    2458                      .dwattr $C$DW$217, DW_AT_name("HOLDS")
    2459                      .dwattr $C$DW$217, DW_AT_TI_symbol_name("_HOLDS")
    2460                      .dwattr $C$DW$217, DW_AT_bit_offset(0x05)
    2461                      .dwattr $C$DW$217, DW_AT_bit_size(0x01)
    2462                      .dwattr $C$DW$217, DW_AT_data_member_location[DW_OP_plus_uconst 0x0]
    2463                      .dwattr $C$DW$217, DW_AT_accessibility(DW_ACCESS_public)
    2464              
    2465              $C$DW$218       .dwtag  DW_TAG_member
    2466                      .dwattr $C$DW$218, DW_AT_type(*$C$DW$T$19)
    2467                      .dwattr $C$DW$218, DW_AT_name("HOLDAS")
    2468                      .dwattr $C$DW$218, DW_AT_TI_symbol_name("_HOLDAS")
    2469                      .dwattr $C$DW$218, DW_AT_bit_offset(0x04)
    2470                      .dwattr $C$DW$218, DW_AT_bit_size(0x01)
    2471                      .dwattr $C$DW$218, DW_AT_data_member_location[DW_OP_plus_uconst 0x0]
    2472                      .dwattr $C$DW$218, DW_AT_accessibility(DW_ACCESS_public)
    2473              
    2474              $C$DW$219       .dwtag  DW_TAG_member
    2475                      .dwattr $C$DW$219, DW_AT_type(*$C$DW$T$19)
    2476                      .dwattr $C$DW$219, DW_AT_name("rsvd3")
    2477                      .dwattr $C$DW$219, DW_AT_TI_symbol_name("_rsvd3")
    2478                      .dwattr $C$DW$219, DW_AT_bit_offset(0x00)
    2479                      .dwattr $C$DW$219, DW_AT_bit_size(0x04)
    2480                      .dwattr $C$DW$219, DW_AT_data_member_location[DW_OP_plus_uconst 0x0]
    2481                      .dwattr $C$DW$219, DW_AT_accessibility(DW_ACCESS_public)
    2482              
    2483              $C$DW$220       .dwtag  DW_TAG_member
    2484                      .dwattr $C$DW$220, DW_AT_type(*$C$DW$T$19)
    2485                      .dwattr $C$DW$220, DW_AT_name("XTIMCLK")
    2486                      .dwattr $C$DW$220, DW_AT_TI_symbol_name("_XTIMCLK")
    2487                      .dwattr $C$DW$220, DW_AT_bit_offset(0x0d)
    2488                      .dwattr $C$DW$220, DW_AT_bit_size(0x03)
    2489                      .dwattr $C$DW$220, DW_AT_data_member_location[DW_OP_plus_uconst 0x1]
    2490                      .dwattr $C$DW$220, DW_AT_accessibility(DW_ACCESS_public)
    2491              
    2492              $C$DW$221       .dwtag  DW_TAG_member
    2493                      .dwattr $C$DW$221, DW_AT_type(*$C$DW$T$19)
    2494                      .dwattr $C$DW$221, DW_AT_name("rsvd4")
    2495                      .dwattr $C$DW$221, DW_AT_TI_symbol_name("_rsvd4")
    2496                      .dwattr $C$DW$221, DW_AT_bit_offset(0x00)
    2497                      .dwattr $C$DW$221, DW_AT_bit_size(0x0d)
    2498                      .dwattr $C$DW$221, DW_AT_data_member_location[DW_OP_plus_uconst 0x1]
    2499                      .dwattr $C$DW$221, DW_AT_accessibility(DW_ACCESS_public)
    2500              
    2501                      .dwendtag $C$DW$T$64
    2502              
    2503              
    2504              $C$DW$T$66      .dwtag  DW_TAG_union_type
    2505                      .dwattr $C$DW$T$66, DW_AT_name("XINTCNF2_REG")
    2506                      .dwattr $C$DW$T$66, DW_AT_byte_size(0x02)
TMS320C2000 Assembler PC v15.12.1 Sat Jun 25 21:32:08 2016

Tools Copyright (c) 1996-2015 Texas Instruments Incorporated
C:\Users\RJKJ_ZGH\AppData\Local\Temp\0869210                         PAGE   48

    2507              $C$DW$222       .dwtag  DW_TAG_member
    2508                      .dwattr $C$DW$222, DW_AT_type(*$C$DW$T$65)
    2509                      .dwattr $C$DW$222, DW_AT_name("all")
    2510                      .dwattr $C$DW$222, DW_AT_TI_symbol_name("_all")
    2511                      .dwattr $C$DW$222, DW_AT_data_member_location[DW_OP_plus_uconst 0x0]
    2512                      .dwattr $C$DW$222, DW_AT_accessibility(DW_ACCESS_public)
    2513              
    2514              $C$DW$223       .dwtag  DW_TAG_member
    2515                      .dwattr $C$DW$223, DW_AT_type(*$C$DW$T$64)
    2516                      .dwattr $C$DW$223, DW_AT_name("bit")
    2517                      .dwattr $C$DW$223, DW_AT_TI_symbol_name("_bit")
    2518                      .dwattr $C$DW$223, DW_AT_data_member_location[DW_OP_plus_uconst 0x0]
    2519                      .dwattr $C$DW$223, DW_AT_accessibility(DW_ACCESS_public)
    2520              
    2521                      .dwendtag $C$DW$T$66
    2522              
    2523              
    2524              $C$DW$T$70      .dwtag  DW_TAG_structure_type
    2525                      .dwattr $C$DW$T$70, DW_AT_name("XINTF_REGS")
    2526                      .dwattr $C$DW$T$70, DW_AT_byte_size(0x1e)
    2527              $C$DW$224       .dwtag  DW_TAG_member
    2528                      .dwattr $C$DW$224, DW_AT_type(*$C$DW$T$74)
    2529                      .dwattr $C$DW$224, DW_AT_name("XTIMING0")
    2530                      .dwattr $C$DW$224, DW_AT_TI_symbol_name("_XTIMING0")
    2531                      .dwattr $C$DW$224, DW_AT_data_member_location[DW_OP_plus_uconst 0x0]
    2532                      .dwattr $C$DW$224, DW_AT_accessibility(DW_ACCESS_public)
    2533              
    2534              $C$DW$225       .dwtag  DW_TAG_member
    2535                      .dwattr $C$DW$225, DW_AT_type(*$C$DW$T$67)
    2536                      .dwattr $C$DW$225, DW_AT_name("rsvd1")
    2537                      .dwattr $C$DW$225, DW_AT_TI_symbol_name("_rsvd1")
    2538                      .dwattr $C$DW$225, DW_AT_data_member_location[DW_OP_plus_uconst 0x2]
    2539                      .dwattr $C$DW$225, DW_AT_accessibility(DW_ACCESS_public)
    2540              
    2541              $C$DW$226       .dwtag  DW_TAG_member
    2542                      .dwattr $C$DW$226, DW_AT_type(*$C$DW$T$74)
    2543                      .dwattr $C$DW$226, DW_AT_name("XTIMING6")
    2544                      .dwattr $C$DW$226, DW_AT_TI_symbol_name("_XTIMING6")
    2545                      .dwattr $C$DW$226, DW_AT_data_member_location[DW_OP_plus_uconst 0xc]
    2546                      .dwattr $C$DW$226, DW_AT_accessibility(DW_ACCESS_public)
    2547              
    2548              $C$DW$227       .dwtag  DW_TAG_member
    2549                      .dwattr $C$DW$227, DW_AT_type(*$C$DW$T$74)
    2550                      .dwattr $C$DW$227, DW_AT_name("XTIMING7")
    2551                      .dwattr $C$DW$227, DW_AT_TI_symbol_name("_XTIMING7")
    2552                      .dwattr $C$DW$227, DW_AT_data_member_location[DW_OP_plus_uconst 0xe]
    2553                      .dwattr $C$DW$227, DW_AT_accessibility(DW_ACCESS_public)
    2554              
    2555              $C$DW$228       .dwtag  DW_TAG_member
    2556                      .dwattr $C$DW$228, DW_AT_type(*$C$DW$T$68)
    2557                      .dwattr $C$DW$228, DW_AT_name("rsvd2")
    2558                      .dwattr $C$DW$228, DW_AT_TI_symbol_name("_rsvd2")
    2559                      .dwattr $C$DW$228, DW_AT_data_member_location[DW_OP_plus_uconst 0x10]
    2560                      .dwattr $C$DW$228, DW_AT_accessibility(DW_ACCESS_public)
    2561              
TMS320C2000 Assembler PC v15.12.1 Sat Jun 25 21:32:08 2016

Tools Copyright (c) 1996-2015 Texas Instruments Incorporated
C:\Users\RJKJ_ZGH\AppData\Local\Temp\0869210                         PAGE   49

    2562              $C$DW$229       .dwtag  DW_TAG_member
    2563                      .dwattr $C$DW$229, DW_AT_type(*$C$DW$T$66)
    2564                      .dwattr $C$DW$229, DW_AT_name("XINTCNF2")
    2565                      .dwattr $C$DW$229, DW_AT_TI_symbol_name("_XINTCNF2")
    2566                      .dwattr $C$DW$229, DW_AT_data_member_location[DW_OP_plus_uconst 0x14]
    2567                      .dwattr $C$DW$229, DW_AT_accessibility(DW_ACCESS_public)
    2568              
    2569              $C$DW$230       .dwtag  DW_TAG_member
    2570                      .dwattr $C$DW$230, DW_AT_type(*$C$DW$T$65)
    2571                      .dwattr $C$DW$230, DW_AT_name("rsvd3")
    2572                      .dwattr $C$DW$230, DW_AT_TI_symbol_name("_rsvd3")
    2573                      .dwattr $C$DW$230, DW_AT_data_member_location[DW_OP_plus_uconst 0x16]
    2574                      .dwattr $C$DW$230, DW_AT_accessibility(DW_ACCESS_public)
    2575              
    2576              $C$DW$231       .dwtag  DW_TAG_member
    2577                      .dwattr $C$DW$231, DW_AT_type(*$C$DW$T$63)
    2578                      .dwattr $C$DW$231, DW_AT_name("XBANK")
    2579                      .dwattr $C$DW$231, DW_AT_TI_symbol_name("_XBANK")
    2580                      .dwattr $C$DW$231, DW_AT_data_member_location[DW_OP_plus_uconst 0x18]
    2581                      .dwattr $C$DW$231, DW_AT_accessibility(DW_ACCESS_public)
    2582              
    2583              $C$DW$232       .dwtag  DW_TAG_member
    2584                      .dwattr $C$DW$232, DW_AT_type(*$C$DW$T$19)
    2585                      .dwattr $C$DW$232, DW_AT_name("rsvd4")
    2586                      .dwattr $C$DW$232, DW_AT_TI_symbol_name("_rsvd4")
    2587                      .dwattr $C$DW$232, DW_AT_data_member_location[DW_OP_plus_uconst 0x19]
    2588                      .dwattr $C$DW$232, DW_AT_accessibility(DW_ACCESS_public)
    2589              
    2590              $C$DW$233       .dwtag  DW_TAG_member
    2591                      .dwattr $C$DW$233, DW_AT_type(*$C$DW$T$19)
    2592                      .dwattr $C$DW$233, DW_AT_name("XREVISION")
    2593                      .dwattr $C$DW$233, DW_AT_TI_symbol_name("_XREVISION")
    2594                      .dwattr $C$DW$233, DW_AT_data_member_location[DW_OP_plus_uconst 0x1a]
    2595                      .dwattr $C$DW$233, DW_AT_accessibility(DW_ACCESS_public)
    2596              
    2597              $C$DW$234       .dwtag  DW_TAG_member
    2598                      .dwattr $C$DW$234, DW_AT_type(*$C$DW$T$69)
    2599                      .dwattr $C$DW$234, DW_AT_name("rsvd5")
    2600                      .dwattr $C$DW$234, DW_AT_TI_symbol_name("_rsvd5")
    2601                      .dwattr $C$DW$234, DW_AT_data_member_location[DW_OP_plus_uconst 0x1b]
    2602                      .dwattr $C$DW$234, DW_AT_accessibility(DW_ACCESS_public)
    2603              
    2604              $C$DW$235       .dwtag  DW_TAG_member
    2605                      .dwattr $C$DW$235, DW_AT_type(*$C$DW$T$72)
    2606                      .dwattr $C$DW$235, DW_AT_name("XRESET")
    2607                      .dwattr $C$DW$235, DW_AT_TI_symbol_name("_XRESET")
    2608                      .dwattr $C$DW$235, DW_AT_data_member_location[DW_OP_plus_uconst 0x1d]
    2609                      .dwattr $C$DW$235, DW_AT_accessibility(DW_ACCESS_public)
    2610              
    2611                      .dwendtag $C$DW$T$70
    2612              
    2613              $C$DW$236       .dwtag  DW_TAG_TI_far_type
    2614                      .dwattr $C$DW$236, DW_AT_type(*$C$DW$T$70)
    2615              
    2616              $C$DW$T$105     .dwtag  DW_TAG_volatile_type
TMS320C2000 Assembler PC v15.12.1 Sat Jun 25 21:32:08 2016

Tools Copyright (c) 1996-2015 Texas Instruments Incorporated
C:\Users\RJKJ_ZGH\AppData\Local\Temp\0869210                         PAGE   50

    2617                      .dwattr $C$DW$T$105, DW_AT_type(*$C$DW$236)
    2618              
    2619              
    2620              $C$DW$T$71      .dwtag  DW_TAG_structure_type
    2621                      .dwattr $C$DW$T$71, DW_AT_name("XRESET_BITS")
    2622                      .dwattr $C$DW$T$71, DW_AT_byte_size(0x01)
    2623              $C$DW$237       .dwtag  DW_TAG_member
    2624                      .dwattr $C$DW$237, DW_AT_type(*$C$DW$T$19)
    2625                      .dwattr $C$DW$237, DW_AT_name("XHARDRESET")
    2626                      .dwattr $C$DW$237, DW_AT_TI_symbol_name("_XHARDRESET")
    2627                      .dwattr $C$DW$237, DW_AT_bit_offset(0x0f)
    2628                      .dwattr $C$DW$237, DW_AT_bit_size(0x01)
    2629                      .dwattr $C$DW$237, DW_AT_data_member_location[DW_OP_plus_uconst 0x0]
    2630                      .dwattr $C$DW$237, DW_AT_accessibility(DW_ACCESS_public)
    2631              
    2632              $C$DW$238       .dwtag  DW_TAG_member
    2633                      .dwattr $C$DW$238, DW_AT_type(*$C$DW$T$19)
    2634                      .dwattr $C$DW$238, DW_AT_name("rsvd1")
    2635                      .dwattr $C$DW$238, DW_AT_TI_symbol_name("_rsvd1")
    2636                      .dwattr $C$DW$238, DW_AT_bit_offset(0x00)
    2637                      .dwattr $C$DW$238, DW_AT_bit_size(0x0f)
    2638                      .dwattr $C$DW$238, DW_AT_data_member_location[DW_OP_plus_uconst 0x0]
    2639                      .dwattr $C$DW$238, DW_AT_accessibility(DW_ACCESS_public)
    2640              
    2641                      .dwendtag $C$DW$T$71
    2642              
    2643              
    2644              $C$DW$T$72      .dwtag  DW_TAG_union_type
    2645                      .dwattr $C$DW$T$72, DW_AT_name("XRESET_REG")
    2646                      .dwattr $C$DW$T$72, DW_AT_byte_size(0x01)
    2647              $C$DW$239       .dwtag  DW_TAG_member
    2648                      .dwattr $C$DW$239, DW_AT_type(*$C$DW$T$19)
    2649                      .dwattr $C$DW$239, DW_AT_name("all")
    2650                      .dwattr $C$DW$239, DW_AT_TI_symbol_name("_all")
    2651                      .dwattr $C$DW$239, DW_AT_data_member_location[DW_OP_plus_uconst 0x0]
    2652                      .dwattr $C$DW$239, DW_AT_accessibility(DW_ACCESS_public)
    2653              
    2654              $C$DW$240       .dwtag  DW_TAG_member
    2655                      .dwattr $C$DW$240, DW_AT_type(*$C$DW$T$71)
    2656                      .dwattr $C$DW$240, DW_AT_name("bit")
    2657                      .dwattr $C$DW$240, DW_AT_TI_symbol_name("_bit")
    2658                      .dwattr $C$DW$240, DW_AT_data_member_location[DW_OP_plus_uconst 0x0]
    2659                      .dwattr $C$DW$240, DW_AT_accessibility(DW_ACCESS_public)
    2660              
    2661                      .dwendtag $C$DW$T$72
    2662              
    2663              
    2664              $C$DW$T$73      .dwtag  DW_TAG_structure_type
    2665                      .dwattr $C$DW$T$73, DW_AT_name("XTIMING_BITS")
    2666                      .dwattr $C$DW$T$73, DW_AT_byte_size(0x02)
    2667              $C$DW$241       .dwtag  DW_TAG_member
    2668                      .dwattr $C$DW$241, DW_AT_type(*$C$DW$T$19)
    2669                      .dwattr $C$DW$241, DW_AT_name("XWRTRAIL")
    2670                      .dwattr $C$DW$241, DW_AT_TI_symbol_name("_XWRTRAIL")
    2671                      .dwattr $C$DW$241, DW_AT_bit_offset(0x0e)
TMS320C2000 Assembler PC v15.12.1 Sat Jun 25 21:32:08 2016

Tools Copyright (c) 1996-2015 Texas Instruments Incorporated
C:\Users\RJKJ_ZGH\AppData\Local\Temp\0869210                         PAGE   51

    2672                      .dwattr $C$DW$241, DW_AT_bit_size(0x02)
    2673                      .dwattr $C$DW$241, DW_AT_data_member_location[DW_OP_plus_uconst 0x0]
    2674                      .dwattr $C$DW$241, DW_AT_accessibility(DW_ACCESS_public)
    2675              
    2676              $C$DW$242       .dwtag  DW_TAG_member
    2677                      .dwattr $C$DW$242, DW_AT_type(*$C$DW$T$19)
    2678                      .dwattr $C$DW$242, DW_AT_name("XWRACTIVE")
    2679                      .dwattr $C$DW$242, DW_AT_TI_symbol_name("_XWRACTIVE")
    2680                      .dwattr $C$DW$242, DW_AT_bit_offset(0x0b)
    2681                      .dwattr $C$DW$242, DW_AT_bit_size(0x03)
    2682                      .dwattr $C$DW$242, DW_AT_data_member_location[DW_OP_plus_uconst 0x0]
    2683                      .dwattr $C$DW$242, DW_AT_accessibility(DW_ACCESS_public)
    2684              
    2685              $C$DW$243       .dwtag  DW_TAG_member
    2686                      .dwattr $C$DW$243, DW_AT_type(*$C$DW$T$19)
    2687                      .dwattr $C$DW$243, DW_AT_name("XWRLEAD")
    2688                      .dwattr $C$DW$243, DW_AT_TI_symbol_name("_XWRLEAD")
    2689                      .dwattr $C$DW$243, DW_AT_bit_offset(0x09)
    2690                      .dwattr $C$DW$243, DW_AT_bit_size(0x02)
    2691                      .dwattr $C$DW$243, DW_AT_data_member_location[DW_OP_plus_uconst 0x0]
    2692                      .dwattr $C$DW$243, DW_AT_accessibility(DW_ACCESS_public)
    2693              
    2694              $C$DW$244       .dwtag  DW_TAG_member
    2695                      .dwattr $C$DW$244, DW_AT_type(*$C$DW$T$19)
    2696                      .dwattr $C$DW$244, DW_AT_name("XRDTRAIL")
    2697                      .dwattr $C$DW$244, DW_AT_TI_symbol_name("_XRDTRAIL")
    2698                      .dwattr $C$DW$244, DW_AT_bit_offset(0x07)
    2699                      .dwattr $C$DW$244, DW_AT_bit_size(0x02)
    2700                      .dwattr $C$DW$244, DW_AT_data_member_location[DW_OP_plus_uconst 0x0]
    2701                      .dwattr $C$DW$244, DW_AT_accessibility(DW_ACCESS_public)
    2702              
    2703              $C$DW$245       .dwtag  DW_TAG_member
    2704                      .dwattr $C$DW$245, DW_AT_type(*$C$DW$T$19)
    2705                      .dwattr $C$DW$245, DW_AT_name("XRDACTIVE")
    2706                      .dwattr $C$DW$245, DW_AT_TI_symbol_name("_XRDACTIVE")
    2707                      .dwattr $C$DW$245, DW_AT_bit_offset(0x04)
    2708                      .dwattr $C$DW$245, DW_AT_bit_size(0x03)
    2709                      .dwattr $C$DW$245, DW_AT_data_member_location[DW_OP_plus_uconst 0x0]
    2710                      .dwattr $C$DW$245, DW_AT_accessibility(DW_ACCESS_public)
    2711              
    2712              $C$DW$246       .dwtag  DW_TAG_member
    2713                      .dwattr $C$DW$246, DW_AT_type(*$C$DW$T$19)
    2714                      .dwattr $C$DW$246, DW_AT_name("XRDLEAD")
    2715                      .dwattr $C$DW$246, DW_AT_TI_symbol_name("_XRDLEAD")
    2716                      .dwattr $C$DW$246, DW_AT_bit_offset(0x02)
    2717                      .dwattr $C$DW$246, DW_AT_bit_size(0x02)
    2718                      .dwattr $C$DW$246, DW_AT_data_member_location[DW_OP_plus_uconst 0x0]
    2719                      .dwattr $C$DW$246, DW_AT_accessibility(DW_ACCESS_public)
    2720              
    2721              $C$DW$247       .dwtag  DW_TAG_member
    2722                      .dwattr $C$DW$247, DW_AT_type(*$C$DW$T$19)
    2723                      .dwattr $C$DW$247, DW_AT_name("USEREADY")
    2724                      .dwattr $C$DW$247, DW_AT_TI_symbol_name("_USEREADY")
    2725                      .dwattr $C$DW$247, DW_AT_bit_offset(0x01)
    2726                      .dwattr $C$DW$247, DW_AT_bit_size(0x01)
TMS320C2000 Assembler PC v15.12.1 Sat Jun 25 21:32:08 2016

Tools Copyright (c) 1996-2015 Texas Instruments Incorporated
C:\Users\RJKJ_ZGH\AppData\Local\Temp\0869210                         PAGE   52

    2727                      .dwattr $C$DW$247, DW_AT_data_member_location[DW_OP_plus_uconst 0x0]
    2728                      .dwattr $C$DW$247, DW_AT_accessibility(DW_ACCESS_public)
    2729              
    2730              $C$DW$248       .dwtag  DW_TAG_member
    2731                      .dwattr $C$DW$248, DW_AT_type(*$C$DW$T$19)
    2732                      .dwattr $C$DW$248, DW_AT_name("READYMODE")
    2733                      .dwattr $C$DW$248, DW_AT_TI_symbol_name("_READYMODE")
    2734                      .dwattr $C$DW$248, DW_AT_bit_offset(0x00)
    2735                      .dwattr $C$DW$248, DW_AT_bit_size(0x01)
    2736                      .dwattr $C$DW$248, DW_AT_data_member_location[DW_OP_plus_uconst 0x0]
    2737                      .dwattr $C$DW$248, DW_AT_accessibility(DW_ACCESS_public)
    2738              
    2739              $C$DW$249       .dwtag  DW_TAG_member
    2740                      .dwattr $C$DW$249, DW_AT_type(*$C$DW$T$19)
    2741                      .dwattr $C$DW$249, DW_AT_name("XSIZE")
    2742                      .dwattr $C$DW$249, DW_AT_TI_symbol_name("_XSIZE")
    2743                      .dwattr $C$DW$249, DW_AT_bit_offset(0x0e)
    2744                      .dwattr $C$DW$249, DW_AT_bit_size(0x02)
    2745                      .dwattr $C$DW$249, DW_AT_data_member_location[DW_OP_plus_uconst 0x1]
    2746                      .dwattr $C$DW$249, DW_AT_accessibility(DW_ACCESS_public)
    2747              
    2748              $C$DW$250       .dwtag  DW_TAG_member
    2749                      .dwattr $C$DW$250, DW_AT_type(*$C$DW$T$19)
    2750                      .dwattr $C$DW$250, DW_AT_name("rsvd1")
    2751                      .dwattr $C$DW$250, DW_AT_TI_symbol_name("_rsvd1")
    2752                      .dwattr $C$DW$250, DW_AT_bit_offset(0x0a)
    2753                      .dwattr $C$DW$250, DW_AT_bit_size(0x04)
    2754                      .dwattr $C$DW$250, DW_AT_data_member_location[DW_OP_plus_uconst 0x1]
    2755                      .dwattr $C$DW$250, DW_AT_accessibility(DW_ACCESS_public)
    2756              
    2757              $C$DW$251       .dwtag  DW_TAG_member
    2758                      .dwattr $C$DW$251, DW_AT_type(*$C$DW$T$19)
    2759                      .dwattr $C$DW$251, DW_AT_name("X2TIMING")
    2760                      .dwattr $C$DW$251, DW_AT_TI_symbol_name("_X2TIMING")
    2761                      .dwattr $C$DW$251, DW_AT_bit_offset(0x09)
    2762                      .dwattr $C$DW$251, DW_AT_bit_size(0x01)
    2763                      .dwattr $C$DW$251, DW_AT_data_member_location[DW_OP_plus_uconst 0x1]
    2764                      .dwattr $C$DW$251, DW_AT_accessibility(DW_ACCESS_public)
    2765              
    2766              $C$DW$252       .dwtag  DW_TAG_member
    2767                      .dwattr $C$DW$252, DW_AT_type(*$C$DW$T$19)
    2768                      .dwattr $C$DW$252, DW_AT_name("rsvd3")
    2769                      .dwattr $C$DW$252, DW_AT_TI_symbol_name("_rsvd3")
    2770                      .dwattr $C$DW$252, DW_AT_bit_offset(0x00)
    2771                      .dwattr $C$DW$252, DW_AT_bit_size(0x09)
    2772                      .dwattr $C$DW$252, DW_AT_data_member_location[DW_OP_plus_uconst 0x1]
    2773                      .dwattr $C$DW$252, DW_AT_accessibility(DW_ACCESS_public)
    2774              
    2775                      .dwendtag $C$DW$T$73
    2776              
    2777              
    2778              $C$DW$T$74      .dwtag  DW_TAG_union_type
    2779                      .dwattr $C$DW$T$74, DW_AT_name("XTIMING_REG")
    2780                      .dwattr $C$DW$T$74, DW_AT_byte_size(0x02)
    2781              $C$DW$253       .dwtag  DW_TAG_member
TMS320C2000 Assembler PC v15.12.1 Sat Jun 25 21:32:08 2016

Tools Copyright (c) 1996-2015 Texas Instruments Incorporated
C:\Users\RJKJ_ZGH\AppData\Local\Temp\0869210                         PAGE   53

    2782                      .dwattr $C$DW$253, DW_AT_type(*$C$DW$T$65)
    2783                      .dwattr $C$DW$253, DW_AT_name("all")
    2784                      .dwattr $C$DW$253, DW_AT_TI_symbol_name("_all")
    2785                      .dwattr $C$DW$253, DW_AT_data_member_location[DW_OP_plus_uconst 0x0]
    2786                      .dwattr $C$DW$253, DW_AT_accessibility(DW_ACCESS_public)
    2787              
    2788              $C$DW$254       .dwtag  DW_TAG_member
    2789                      .dwattr $C$DW$254, DW_AT_type(*$C$DW$T$73)
    2790                      .dwattr $C$DW$254, DW_AT_name("bit")
    2791                      .dwattr $C$DW$254, DW_AT_TI_symbol_name("_bit")
    2792                      .dwattr $C$DW$254, DW_AT_data_member_location[DW_OP_plus_uconst 0x0]
    2793                      .dwattr $C$DW$254, DW_AT_accessibility(DW_ACCESS_public)
    2794              
    2795                      .dwendtag $C$DW$T$74
    2796              
    2797              $C$DW$T$2       .dwtag  DW_TAG_unspecified_type
    2798                      .dwattr $C$DW$T$2, DW_AT_name("void")
    2799              
    2800              $C$DW$T$4       .dwtag  DW_TAG_base_type
    2801                      .dwattr $C$DW$T$4, DW_AT_encoding(DW_ATE_boolean)
    2802                      .dwattr $C$DW$T$4, DW_AT_name("bool")
    2803                      .dwattr $C$DW$T$4, DW_AT_byte_size(0x01)
    2804              
    2805              $C$DW$T$5       .dwtag  DW_TAG_base_type
    2806                      .dwattr $C$DW$T$5, DW_AT_encoding(DW_ATE_signed_char)
    2807                      .dwattr $C$DW$T$5, DW_AT_name("signed char")
    2808                      .dwattr $C$DW$T$5, DW_AT_byte_size(0x01)
    2809              
    2810              $C$DW$T$6       .dwtag  DW_TAG_base_type
    2811                      .dwattr $C$DW$T$6, DW_AT_encoding(DW_ATE_unsigned_char)
    2812                      .dwattr $C$DW$T$6, DW_AT_name("unsigned char")
    2813                      .dwattr $C$DW$T$6, DW_AT_byte_size(0x01)
    2814              
    2815              $C$DW$T$7       .dwtag  DW_TAG_base_type
    2816                      .dwattr $C$DW$T$7, DW_AT_encoding(DW_ATE_signed_char)
    2817                      .dwattr $C$DW$T$7, DW_AT_name("wchar_t")
    2818                      .dwattr $C$DW$T$7, DW_AT_byte_size(0x01)
    2819              
    2820              $C$DW$T$8       .dwtag  DW_TAG_base_type
    2821                      .dwattr $C$DW$T$8, DW_AT_encoding(DW_ATE_signed)
    2822                      .dwattr $C$DW$T$8, DW_AT_name("short")
    2823                      .dwattr $C$DW$T$8, DW_AT_byte_size(0x01)
    2824              
    2825              $C$DW$T$9       .dwtag  DW_TAG_base_type
    2826                      .dwattr $C$DW$T$9, DW_AT_encoding(DW_ATE_unsigned)
    2827                      .dwattr $C$DW$T$9, DW_AT_name("unsigned short")
    2828                      .dwattr $C$DW$T$9, DW_AT_byte_size(0x01)
    2829              
    2830              $C$DW$T$10      .dwtag  DW_TAG_base_type
    2831                      .dwattr $C$DW$T$10, DW_AT_encoding(DW_ATE_signed)
    2832                      .dwattr $C$DW$T$10, DW_AT_name("int")
    2833                      .dwattr $C$DW$T$10, DW_AT_byte_size(0x01)
    2834              
    2835              $C$DW$T$11      .dwtag  DW_TAG_base_type
    2836                      .dwattr $C$DW$T$11, DW_AT_encoding(DW_ATE_unsigned)
TMS320C2000 Assembler PC v15.12.1 Sat Jun 25 21:32:08 2016

Tools Copyright (c) 1996-2015 Texas Instruments Incorporated
C:\Users\RJKJ_ZGH\AppData\Local\Temp\0869210                         PAGE   54

    2837                      .dwattr $C$DW$T$11, DW_AT_name("unsigned int")
    2838                      .dwattr $C$DW$T$11, DW_AT_byte_size(0x01)
    2839              
    2840              $C$DW$T$19      .dwtag  DW_TAG_typedef
    2841                      .dwattr $C$DW$T$19, DW_AT_name("Uint16")
    2842                      .dwattr $C$DW$T$19, DW_AT_type(*$C$DW$T$11)
    2843                      .dwattr $C$DW$T$19, DW_AT_language(DW_LANG_C)
    2844              
    2845              $C$DW$255       .dwtag  DW_TAG_TI_far_type
    2846                      .dwattr $C$DW$255, DW_AT_type(*$C$DW$T$19)
    2847              
    2848              $C$DW$T$112     .dwtag  DW_TAG_volatile_type
    2849                      .dwattr $C$DW$T$112, DW_AT_type(*$C$DW$255)
    2850              
    2851              
    2852              $C$DW$T$57      .dwtag  DW_TAG_array_type
    2853                      .dwattr $C$DW$T$57, DW_AT_type(*$C$DW$T$19)
    2854                      .dwattr $C$DW$T$57, DW_AT_language(DW_LANG_C)
    2855                      .dwattr $C$DW$T$57, DW_AT_byte_size(0x08)
    2856              $C$DW$256       .dwtag  DW_TAG_subrange_type
    2857                      .dwattr $C$DW$256, DW_AT_upper_bound(0x07)
    2858              
    2859                      .dwendtag $C$DW$T$57
    2860              
    2861              
    2862              $C$DW$T$58      .dwtag  DW_TAG_array_type
    2863                      .dwattr $C$DW$T$58, DW_AT_type(*$C$DW$T$19)
    2864                      .dwattr $C$DW$T$58, DW_AT_language(DW_LANG_C)
    2865                      .dwattr $C$DW$T$58, DW_AT_byte_size(0x03)
    2866              $C$DW$257       .dwtag  DW_TAG_subrange_type
    2867                      .dwattr $C$DW$257, DW_AT_upper_bound(0x02)
    2868              
    2869                      .dwendtag $C$DW$T$58
    2870              
    2871              
    2872              $C$DW$T$59      .dwtag  DW_TAG_array_type
    2873                      .dwattr $C$DW$T$59, DW_AT_type(*$C$DW$T$19)
    2874                      .dwattr $C$DW$T$59, DW_AT_language(DW_LANG_C)
    2875                      .dwattr $C$DW$T$59, DW_AT_byte_size(0x04)
    2876              $C$DW$258       .dwtag  DW_TAG_subrange_type
    2877                      .dwattr $C$DW$258, DW_AT_upper_bound(0x03)
    2878              
    2879                      .dwendtag $C$DW$T$59
    2880              
    2881              
    2882              $C$DW$T$60      .dwtag  DW_TAG_array_type
    2883                      .dwattr $C$DW$T$60, DW_AT_type(*$C$DW$T$19)
    2884                      .dwattr $C$DW$T$60, DW_AT_language(DW_LANG_C)
    2885                      .dwattr $C$DW$T$60, DW_AT_byte_size(0x01)
    2886              $C$DW$259       .dwtag  DW_TAG_subrange_type
    2887                      .dwattr $C$DW$259, DW_AT_upper_bound(0x00)
    2888              
    2889                      .dwendtag $C$DW$T$60
    2890              
    2891              
TMS320C2000 Assembler PC v15.12.1 Sat Jun 25 21:32:08 2016

Tools Copyright (c) 1996-2015 Texas Instruments Incorporated
C:\Users\RJKJ_ZGH\AppData\Local\Temp\0869210                         PAGE   55

    2892              $C$DW$T$69      .dwtag  DW_TAG_array_type
    2893                      .dwattr $C$DW$T$69, DW_AT_type(*$C$DW$T$19)
    2894                      .dwattr $C$DW$T$69, DW_AT_language(DW_LANG_C)
    2895                      .dwattr $C$DW$T$69, DW_AT_byte_size(0x02)
    2896              $C$DW$260       .dwtag  DW_TAG_subrange_type
    2897                      .dwattr $C$DW$260, DW_AT_upper_bound(0x01)
    2898              
    2899                      .dwendtag $C$DW$T$69
    2900              
    2901              $C$DW$T$12      .dwtag  DW_TAG_base_type
    2902                      .dwattr $C$DW$T$12, DW_AT_encoding(DW_ATE_signed)
    2903                      .dwattr $C$DW$T$12, DW_AT_name("long")
    2904                      .dwattr $C$DW$T$12, DW_AT_byte_size(0x02)
    2905              
    2906              $C$DW$T$13      .dwtag  DW_TAG_base_type
    2907                      .dwattr $C$DW$T$13, DW_AT_encoding(DW_ATE_unsigned)
    2908                      .dwattr $C$DW$T$13, DW_AT_name("unsigned long")
    2909                      .dwattr $C$DW$T$13, DW_AT_byte_size(0x02)
    2910              
    2911              $C$DW$T$65      .dwtag  DW_TAG_typedef
    2912                      .dwattr $C$DW$T$65, DW_AT_name("Uint32")
    2913                      .dwattr $C$DW$T$65, DW_AT_type(*$C$DW$T$13)
    2914                      .dwattr $C$DW$T$65, DW_AT_language(DW_LANG_C)
    2915              
    2916              
    2917              $C$DW$T$67      .dwtag  DW_TAG_array_type
    2918                      .dwattr $C$DW$T$67, DW_AT_type(*$C$DW$T$65)
    2919                      .dwattr $C$DW$T$67, DW_AT_language(DW_LANG_C)
    2920                      .dwattr $C$DW$T$67, DW_AT_byte_size(0x0a)
    2921              $C$DW$261       .dwtag  DW_TAG_subrange_type
    2922                      .dwattr $C$DW$261, DW_AT_upper_bound(0x04)
    2923              
    2924                      .dwendtag $C$DW$T$67
    2925              
    2926              
    2927              $C$DW$T$68      .dwtag  DW_TAG_array_type
    2928                      .dwattr $C$DW$T$68, DW_AT_type(*$C$DW$T$65)
    2929                      .dwattr $C$DW$T$68, DW_AT_language(DW_LANG_C)
    2930                      .dwattr $C$DW$T$68, DW_AT_byte_size(0x04)
    2931              $C$DW$262       .dwtag  DW_TAG_subrange_type
    2932                      .dwattr $C$DW$262, DW_AT_upper_bound(0x01)
    2933              
    2934                      .dwendtag $C$DW$T$68
    2935              
    2936              $C$DW$T$14      .dwtag  DW_TAG_base_type
    2937                      .dwattr $C$DW$T$14, DW_AT_encoding(DW_ATE_signed)
    2938                      .dwattr $C$DW$T$14, DW_AT_name("long long")
    2939                      .dwattr $C$DW$T$14, DW_AT_byte_size(0x04)
    2940              
    2941              $C$DW$T$15      .dwtag  DW_TAG_base_type
    2942                      .dwattr $C$DW$T$15, DW_AT_encoding(DW_ATE_unsigned)
    2943                      .dwattr $C$DW$T$15, DW_AT_name("unsigned long long")
    2944                      .dwattr $C$DW$T$15, DW_AT_byte_size(0x04)
    2945              
    2946              $C$DW$T$16      .dwtag  DW_TAG_base_type
TMS320C2000 Assembler PC v15.12.1 Sat Jun 25 21:32:08 2016

Tools Copyright (c) 1996-2015 Texas Instruments Incorporated
C:\Users\RJKJ_ZGH\AppData\Local\Temp\0869210                         PAGE   56

    2947                      .dwattr $C$DW$T$16, DW_AT_encoding(DW_ATE_float)
    2948                      .dwattr $C$DW$T$16, DW_AT_name("float")
    2949                      .dwattr $C$DW$T$16, DW_AT_byte_size(0x02)
    2950              
    2951              $C$DW$T$17      .dwtag  DW_TAG_base_type
    2952                      .dwattr $C$DW$T$17, DW_AT_encoding(DW_ATE_float)
    2953                      .dwattr $C$DW$T$17, DW_AT_name("double")
    2954                      .dwattr $C$DW$T$17, DW_AT_byte_size(0x02)
    2955              
    2956              $C$DW$T$18      .dwtag  DW_TAG_base_type
    2957                      .dwattr $C$DW$T$18, DW_AT_encoding(DW_ATE_float)
    2958                      .dwattr $C$DW$T$18, DW_AT_name("long double")
    2959                      .dwattr $C$DW$T$18, DW_AT_byte_size(0x04)
    2960              
    2961                      .dwattr $C$DW$CU, DW_AT_language(DW_LANG_C)
    2962              
    2963              ;***************************************************************
    2964              ;* DWARF CIE ENTRIES                                           *
    2965              ;***************************************************************
    2966              
    2967              $C$DW$CIE       .dwcie 26
    2968                      .dwcfi  cfa_register, 20
    2969                      .dwcfi  cfa_offset, 0
    2970                      .dwcfi  undefined, 0
    2971                      .dwcfi  undefined, 1
    2972                      .dwcfi  undefined, 2
    2973                      .dwcfi  undefined, 3
    2974                      .dwcfi  undefined, 20
    2975                      .dwcfi  undefined, 21
    2976                      .dwcfi  undefined, 22
    2977                      .dwcfi  undefined, 23
    2978                      .dwcfi  undefined, 24
    2979                      .dwcfi  undefined, 25
    2980                      .dwcfi  undefined, 26
    2981                      .dwcfi  same_value, 28
    2982                      .dwcfi  undefined, 29
    2983                      .dwcfi  undefined, 30
    2984                      .dwcfi  undefined, 31
    2985                      .dwcfi  undefined, 32
    2986                      .dwcfi  undefined, 33
    2987                      .dwcfi  undefined, 34
    2988                      .dwcfi  undefined, 35
    2989                      .dwcfi  undefined, 36
    2990                      .dwcfi  undefined, 37
    2991                      .dwcfi  undefined, 38
    2992                      .dwcfi  undefined, 75
    2993                      .dwcfi  undefined, 76
    2994                      .dwcfi  undefined, 77
    2995                      .dwcfi  undefined, 4
    2996                      .dwcfi  undefined, 5
    2997                      .dwcfi  same_value, 6
    2998                      .dwcfi  same_value, 7
    2999                      .dwcfi  same_value, 8
    3000                      .dwcfi  same_value, 9
    3001                      .dwcfi  same_value, 10
TMS320C2000 Assembler PC v15.12.1 Sat Jun 25 21:32:08 2016

Tools Copyright (c) 1996-2015 Texas Instruments Incorporated
C:\Users\RJKJ_ZGH\AppData\Local\Temp\0869210                         PAGE   57

    3002                      .dwcfi  same_value, 11
    3003                      .dwcfi  undefined, 12
    3004                      .dwcfi  undefined, 13
    3005                      .dwcfi  undefined, 14
    3006                      .dwcfi  undefined, 15
    3007                      .dwcfi  undefined, 16
    3008                      .dwcfi  undefined, 17
    3009                      .dwcfi  undefined, 18
    3010                      .dwcfi  undefined, 19
    3011                      .dwcfi  undefined, 43
    3012                      .dwcfi  undefined, 44
    3013                      .dwcfi  undefined, 47
    3014                      .dwcfi  undefined, 48
    3015                      .dwcfi  undefined, 51
    3016                      .dwcfi  undefined, 52
    3017                      .dwcfi  undefined, 55
    3018                      .dwcfi  undefined, 56
    3019                      .dwcfi  same_value, 59
    3020                      .dwcfi  same_value, 60
    3021                      .dwcfi  same_value, 63
    3022                      .dwcfi  same_value, 64
    3023                      .dwcfi  same_value, 67
    3024                      .dwcfi  same_value, 68
    3025                      .dwcfi  same_value, 71
    3026                      .dwcfi  same_value, 72
    3027                      .dwcfi  undefined, 73
    3028                      .dwcfi  undefined, 74
    3029                      .dwcfi  undefined, 39
    3030                      .dwcfi  undefined, 40
    3031                      .dwcfi  undefined, 27
    3032                      .dwendentry
    3033              
    3034              ;***************************************************************
    3035              ;* DWARF REGISTER MAP                                          *
    3036              ;***************************************************************
    3037              
    3038              $C$DW$263       .dwtag  DW_TAG_TI_assign_register
    3039                      .dwattr $C$DW$263, DW_AT_name("AL")
    3040                      .dwattr $C$DW$263, DW_AT_location[DW_OP_reg0]
    3041              
    3042              $C$DW$264       .dwtag  DW_TAG_TI_assign_register
    3043                      .dwattr $C$DW$264, DW_AT_name("AH")
    3044                      .dwattr $C$DW$264, DW_AT_location[DW_OP_reg1]
    3045              
    3046              $C$DW$265       .dwtag  DW_TAG_TI_assign_register
    3047                      .dwattr $C$DW$265, DW_AT_name("PL")
    3048                      .dwattr $C$DW$265, DW_AT_location[DW_OP_reg2]
    3049              
    3050              $C$DW$266       .dwtag  DW_TAG_TI_assign_register
    3051                      .dwattr $C$DW$266, DW_AT_name("PH")
    3052                      .dwattr $C$DW$266, DW_AT_location[DW_OP_reg3]
    3053              
    3054              $C$DW$267       .dwtag  DW_TAG_TI_assign_register
    3055                      .dwattr $C$DW$267, DW_AT_name("SP")
    3056                      .dwattr $C$DW$267, DW_AT_location[DW_OP_reg20]
TMS320C2000 Assembler PC v15.12.1 Sat Jun 25 21:32:08 2016

Tools Copyright (c) 1996-2015 Texas Instruments Incorporated
C:\Users\RJKJ_ZGH\AppData\Local\Temp\0869210                         PAGE   58

    3057              
    3058              $C$DW$268       .dwtag  DW_TAG_TI_assign_register
    3059                      .dwattr $C$DW$268, DW_AT_name("XT")
    3060                      .dwattr $C$DW$268, DW_AT_location[DW_OP_reg21]
    3061              
    3062              $C$DW$269       .dwtag  DW_TAG_TI_assign_register
    3063                      .dwattr $C$DW$269, DW_AT_name("T")
    3064                      .dwattr $C$DW$269, DW_AT_location[DW_OP_reg22]
    3065              
    3066              $C$DW$270       .dwtag  DW_TAG_TI_assign_register
    3067                      .dwattr $C$DW$270, DW_AT_name("ST0")
    3068                      .dwattr $C$DW$270, DW_AT_location[DW_OP_reg23]
    3069              
    3070              $C$DW$271       .dwtag  DW_TAG_TI_assign_register
    3071                      .dwattr $C$DW$271, DW_AT_name("ST1")
    3072                      .dwattr $C$DW$271, DW_AT_location[DW_OP_reg24]
    3073              
    3074              $C$DW$272       .dwtag  DW_TAG_TI_assign_register
    3075                      .dwattr $C$DW$272, DW_AT_name("PC")
    3076                      .dwattr $C$DW$272, DW_AT_location[DW_OP_reg25]
    3077              
    3078              $C$DW$273       .dwtag  DW_TAG_TI_assign_register
    3079                      .dwattr $C$DW$273, DW_AT_name("RPC")
    3080                      .dwattr $C$DW$273, DW_AT_location[DW_OP_reg26]
    3081              
    3082              $C$DW$274       .dwtag  DW_TAG_TI_assign_register
    3083                      .dwattr $C$DW$274, DW_AT_name("FP")
    3084                      .dwattr $C$DW$274, DW_AT_location[DW_OP_reg28]
    3085              
    3086              $C$DW$275       .dwtag  DW_TAG_TI_assign_register
    3087                      .dwattr $C$DW$275, DW_AT_name("DP")
    3088                      .dwattr $C$DW$275, DW_AT_location[DW_OP_reg29]
    3089              
    3090              $C$DW$276       .dwtag  DW_TAG_TI_assign_register
    3091                      .dwattr $C$DW$276, DW_AT_name("SXM")
    3092                      .dwattr $C$DW$276, DW_AT_location[DW_OP_reg30]
    3093              
    3094              $C$DW$277       .dwtag  DW_TAG_TI_assign_register
    3095                      .dwattr $C$DW$277, DW_AT_name("PM")
    3096                      .dwattr $C$DW$277, DW_AT_location[DW_OP_reg31]
    3097              
    3098              $C$DW$278       .dwtag  DW_TAG_TI_assign_register
    3099                      .dwattr $C$DW$278, DW_AT_name("OVM")
    3100                      .dwattr $C$DW$278, DW_AT_location[DW_OP_regx 0x20]
    3101              
    3102              $C$DW$279       .dwtag  DW_TAG_TI_assign_register
    3103                      .dwattr $C$DW$279, DW_AT_name("PAGE0")
    3104                      .dwattr $C$DW$279, DW_AT_location[DW_OP_regx 0x21]
    3105              
    3106              $C$DW$280       .dwtag  DW_TAG_TI_assign_register
    3107                      .dwattr $C$DW$280, DW_AT_name("AMODE")
    3108                      .dwattr $C$DW$280, DW_AT_location[DW_OP_regx 0x22]
    3109              
    3110              $C$DW$281       .dwtag  DW_TAG_TI_assign_register
    3111                      .dwattr $C$DW$281, DW_AT_name("INTM")
TMS320C2000 Assembler PC v15.12.1 Sat Jun 25 21:32:08 2016

Tools Copyright (c) 1996-2015 Texas Instruments Incorporated
C:\Users\RJKJ_ZGH\AppData\Local\Temp\0869210                         PAGE   59

    3112                      .dwattr $C$DW$281, DW_AT_location[DW_OP_regx 0x23]
    3113              
    3114              $C$DW$282       .dwtag  DW_TAG_TI_assign_register
    3115                      .dwattr $C$DW$282, DW_AT_name("IFR")
    3116                      .dwattr $C$DW$282, DW_AT_location[DW_OP_regx 0x24]
    3117              
    3118              $C$DW$283       .dwtag  DW_TAG_TI_assign_register
    3119                      .dwattr $C$DW$283, DW_AT_name("IER")
    3120                      .dwattr $C$DW$283, DW_AT_location[DW_OP_regx 0x25]
    3121              
    3122              $C$DW$284       .dwtag  DW_TAG_TI_assign_register
    3123                      .dwattr $C$DW$284, DW_AT_name("V")
    3124                      .dwattr $C$DW$284, DW_AT_location[DW_OP_regx 0x26]
    3125              
    3126              $C$DW$285       .dwtag  DW_TAG_TI_assign_register
    3127                      .dwattr $C$DW$285, DW_AT_name("PSEUDOH")
    3128                      .dwattr $C$DW$285, DW_AT_location[DW_OP_regx 0x4c]
    3129              
    3130              $C$DW$286       .dwtag  DW_TAG_TI_assign_register
    3131                      .dwattr $C$DW$286, DW_AT_name("VOL")
    3132                      .dwattr $C$DW$286, DW_AT_location[DW_OP_regx 0x4d]
    3133              
    3134              $C$DW$287       .dwtag  DW_TAG_TI_assign_register
    3135                      .dwattr $C$DW$287, DW_AT_name("AR0")
    3136                      .dwattr $C$DW$287, DW_AT_location[DW_OP_reg4]
    3137              
    3138              $C$DW$288       .dwtag  DW_TAG_TI_assign_register
    3139                      .dwattr $C$DW$288, DW_AT_name("XAR0")
    3140                      .dwattr $C$DW$288, DW_AT_location[DW_OP_reg5]
    3141              
    3142              $C$DW$289       .dwtag  DW_TAG_TI_assign_register
    3143                      .dwattr $C$DW$289, DW_AT_name("AR1")
    3144                      .dwattr $C$DW$289, DW_AT_location[DW_OP_reg6]
    3145              
    3146              $C$DW$290       .dwtag  DW_TAG_TI_assign_register
    3147                      .dwattr $C$DW$290, DW_AT_name("XAR1")
    3148                      .dwattr $C$DW$290, DW_AT_location[DW_OP_reg7]
    3149              
    3150              $C$DW$291       .dwtag  DW_TAG_TI_assign_register
    3151                      .dwattr $C$DW$291, DW_AT_name("AR2")
    3152                      .dwattr $C$DW$291, DW_AT_location[DW_OP_reg8]
    3153              
    3154              $C$DW$292       .dwtag  DW_TAG_TI_assign_register
    3155                      .dwattr $C$DW$292, DW_AT_name("XAR2")
    3156                      .dwattr $C$DW$292, DW_AT_location[DW_OP_reg9]
    3157              
    3158              $C$DW$293       .dwtag  DW_TAG_TI_assign_register
    3159                      .dwattr $C$DW$293, DW_AT_name("AR3")
    3160                      .dwattr $C$DW$293, DW_AT_location[DW_OP_reg10]
    3161              
    3162              $C$DW$294       .dwtag  DW_TAG_TI_assign_register
    3163                      .dwattr $C$DW$294, DW_AT_name("XAR3")
    3164                      .dwattr $C$DW$294, DW_AT_location[DW_OP_reg11]
    3165              
    3166              $C$DW$295       .dwtag  DW_TAG_TI_assign_register
TMS320C2000 Assembler PC v15.12.1 Sat Jun 25 21:32:08 2016

Tools Copyright (c) 1996-2015 Texas Instruments Incorporated
C:\Users\RJKJ_ZGH\AppData\Local\Temp\0869210                         PAGE   60

    3167                      .dwattr $C$DW$295, DW_AT_name("AR4")
    3168                      .dwattr $C$DW$295, DW_AT_location[DW_OP_reg12]
    3169              
    3170              $C$DW$296       .dwtag  DW_TAG_TI_assign_register
    3171                      .dwattr $C$DW$296, DW_AT_name("XAR4")
    3172                      .dwattr $C$DW$296, DW_AT_location[DW_OP_reg13]
    3173              
    3174              $C$DW$297       .dwtag  DW_TAG_TI_assign_register
    3175                      .dwattr $C$DW$297, DW_AT_name("AR5")
    3176                      .dwattr $C$DW$297, DW_AT_location[DW_OP_reg14]
    3177              
    3178              $C$DW$298       .dwtag  DW_TAG_TI_assign_register
    3179                      .dwattr $C$DW$298, DW_AT_name("XAR5")
    3180                      .dwattr $C$DW$298, DW_AT_location[DW_OP_reg15]
    3181              
    3182              $C$DW$299       .dwtag  DW_TAG_TI_assign_register
    3183                      .dwattr $C$DW$299, DW_AT_name("AR6")
    3184                      .dwattr $C$DW$299, DW_AT_location[DW_OP_reg16]
    3185              
    3186              $C$DW$300       .dwtag  DW_TAG_TI_assign_register
    3187                      .dwattr $C$DW$300, DW_AT_name("XAR6")
    3188                      .dwattr $C$DW$300, DW_AT_location[DW_OP_reg17]
    3189              
    3190              $C$DW$301       .dwtag  DW_TAG_TI_assign_register
    3191                      .dwattr $C$DW$301, DW_AT_name("AR7")
    3192                      .dwattr $C$DW$301, DW_AT_location[DW_OP_reg18]
    3193              
    3194              $C$DW$302       .dwtag  DW_TAG_TI_assign_register
    3195                      .dwattr $C$DW$302, DW_AT_name("XAR7")
    3196                      .dwattr $C$DW$302, DW_AT_location[DW_OP_reg19]
    3197              
    3198              $C$DW$303       .dwtag  DW_TAG_TI_assign_register
    3199                      .dwattr $C$DW$303, DW_AT_name("R0HL")
    3200                      .dwattr $C$DW$303, DW_AT_location[DW_OP_regx 0x2b]
    3201              
    3202              $C$DW$304       .dwtag  DW_TAG_TI_assign_register
    3203                      .dwattr $C$DW$304, DW_AT_name("R0H")
    3204                      .dwattr $C$DW$304, DW_AT_location[DW_OP_regx 0x2c]
    3205              
    3206              $C$DW$305       .dwtag  DW_TAG_TI_assign_register
    3207                      .dwattr $C$DW$305, DW_AT_name("R1HL")
    3208                      .dwattr $C$DW$305, DW_AT_location[DW_OP_regx 0x2f]
    3209              
    3210              $C$DW$306       .dwtag  DW_TAG_TI_assign_register
    3211                      .dwattr $C$DW$306, DW_AT_name("R1H")
    3212                      .dwattr $C$DW$306, DW_AT_location[DW_OP_regx 0x30]
    3213              
    3214              $C$DW$307       .dwtag  DW_TAG_TI_assign_register
    3215                      .dwattr $C$DW$307, DW_AT_name("R2HL")
    3216                      .dwattr $C$DW$307, DW_AT_location[DW_OP_regx 0x33]
    3217              
    3218              $C$DW$308       .dwtag  DW_TAG_TI_assign_register
    3219                      .dwattr $C$DW$308, DW_AT_name("R2H")
    3220                      .dwattr $C$DW$308, DW_AT_location[DW_OP_regx 0x34]
    3221              
TMS320C2000 Assembler PC v15.12.1 Sat Jun 25 21:32:08 2016

Tools Copyright (c) 1996-2015 Texas Instruments Incorporated
C:\Users\RJKJ_ZGH\AppData\Local\Temp\0869210                         PAGE   61

    3222              $C$DW$309       .dwtag  DW_TAG_TI_assign_register
    3223                      .dwattr $C$DW$309, DW_AT_name("R3HL")
    3224                      .dwattr $C$DW$309, DW_AT_location[DW_OP_regx 0x37]
    3225              
    3226              $C$DW$310       .dwtag  DW_TAG_TI_assign_register
    3227                      .dwattr $C$DW$310, DW_AT_name("R3H")
    3228                      .dwattr $C$DW$310, DW_AT_location[DW_OP_regx 0x38]
    3229              
    3230              $C$DW$311       .dwtag  DW_TAG_TI_assign_register
    3231                      .dwattr $C$DW$311, DW_AT_name("R4HL")
    3232                      .dwattr $C$DW$311, DW_AT_location[DW_OP_regx 0x3b]
    3233              
    3234              $C$DW$312       .dwtag  DW_TAG_TI_assign_register
    3235                      .dwattr $C$DW$312, DW_AT_name("R4H")
    3236                      .dwattr $C$DW$312, DW_AT_location[DW_OP_regx 0x3c]
    3237              
    3238              $C$DW$313       .dwtag  DW_TAG_TI_assign_register
    3239                      .dwattr $C$DW$313, DW_AT_name("R5HL")
    3240                      .dwattr $C$DW$313, DW_AT_location[DW_OP_regx 0x3f]
    3241              
    3242              $C$DW$314       .dwtag  DW_TAG_TI_assign_register
    3243                      .dwattr $C$DW$314, DW_AT_name("R5H")
    3244                      .dwattr $C$DW$314, DW_AT_location[DW_OP_regx 0x40]
    3245              
    3246              $C$DW$315       .dwtag  DW_TAG_TI_assign_register
    3247                      .dwattr $C$DW$315, DW_AT_name("R6HL")
    3248                      .dwattr $C$DW$315, DW_AT_location[DW_OP_regx 0x43]
    3249              
    3250              $C$DW$316       .dwtag  DW_TAG_TI_assign_register
    3251                      .dwattr $C$DW$316, DW_AT_name("R6H")
    3252                      .dwattr $C$DW$316, DW_AT_location[DW_OP_regx 0x44]
    3253              
    3254              $C$DW$317       .dwtag  DW_TAG_TI_assign_register
    3255                      .dwattr $C$DW$317, DW_AT_name("R7HL")
    3256                      .dwattr $C$DW$317, DW_AT_location[DW_OP_regx 0x47]
    3257              
    3258              $C$DW$318       .dwtag  DW_TAG_TI_assign_register
    3259                      .dwattr $C$DW$318, DW_AT_name("R7H")
    3260                      .dwattr $C$DW$318, DW_AT_location[DW_OP_regx 0x48]
    3261              
    3262              $C$DW$319       .dwtag  DW_TAG_TI_assign_register
    3263                      .dwattr $C$DW$319, DW_AT_name("RBL")
    3264                      .dwattr $C$DW$319, DW_AT_location[DW_OP_regx 0x49]
    3265              
    3266              $C$DW$320       .dwtag  DW_TAG_TI_assign_register
    3267                      .dwattr $C$DW$320, DW_AT_name("RB")
    3268                      .dwattr $C$DW$320, DW_AT_location[DW_OP_regx 0x4a]
    3269              
    3270              $C$DW$321       .dwtag  DW_TAG_TI_assign_register
    3271                      .dwattr $C$DW$321, DW_AT_name("STFL")
    3272                      .dwattr $C$DW$321, DW_AT_location[DW_OP_regx 0x27]
    3273              
    3274              $C$DW$322       .dwtag  DW_TAG_TI_assign_register
    3275                      .dwattr $C$DW$322, DW_AT_name("STF")
    3276                      .dwattr $C$DW$322, DW_AT_location[DW_OP_regx 0x28]
TMS320C2000 Assembler PC v15.12.1 Sat Jun 25 21:32:08 2016

Tools Copyright (c) 1996-2015 Texas Instruments Incorporated
C:\Users\RJKJ_ZGH\AppData\Local\Temp\0869210                         PAGE   62

    3277              
    3278              $C$DW$323       .dwtag  DW_TAG_TI_assign_register
    3279                      .dwattr $C$DW$323, DW_AT_name("FPUHAZ")
    3280                      .dwattr $C$DW$323, DW_AT_location[DW_OP_reg27]
    3281              
    3282                      .dwendtag $C$DW$CU
    3283              

No Assembly Errors, No Assembly Warnings
